; Listing generated by Microsoft (R) Optimizing Compiler Version 19.29.30133.0 

	TITLE	C:\instit\lab\ œŒ\Leapyears\Leapyears\Debug\Leapyears.obj
	.686P
	.XMM
	include listing.inc
	.model	flat

INCLUDELIB MSVCRTD
INCLUDELIB OLDNAMES

PUBLIC	?mes@@3PAHA					; mes
msvcjmc	SEGMENT
__97D3638F_vcruntime_new@h DB 01H
__741AE07E_corecrt_math@h DB 01H
__B49664B7_stdlib@h DB 01H
__244AF085_cstdlib DB 01H
__60BC708E_cmath DB 01H
__A2143F22_corecrt_stdio_config@h DB 01H
__829E1958_corecrt_wstdio@h DB 01H
__6DFAE8B8_stdio@h DB 01H
__1FEB9909_corecrt_memcpy_s@h DB 01H
__A751F051_corecrt_memory@h DB 01H
__9200769A_corecrt_wstring@h DB 01H
__32E5F013_string@h DB 01H
__C6E16F6F_corecrt_wconio@h DB 01H
__6D390390_corecrt_wio@h DB 01H
__1157D6BA_corecrt_wtime@h DB 01H
__1DC1E279_stat@h DB 01H
__93DC0B45_wchar@h DB 01H
__589FA321_type_traits DB 01H
__12269DE6_xutility DB 01H
__20BB4341_malloc@h DB 01H
__B0A13A33_vcruntime_exception@h DB 01H
__FF458F76_exception DB 01H
__7FE5F402_limits DB 01H
__79D216CD_xmemory DB 01H
__0D019051_xstring DB 01H
__760BB52B_stdexcept DB 01H
__A4685E82_xcall_once@h DB 01H
__A0B61CF9_time@h DB 01H
__DDB379A0_xthreads@h DB 01H
__14D0A8C0_atomic DB 01H
__1B354CA2_system_error DB 01H
__65ADBEC9_vcruntime_typeinfo@h DB 01H
__62F96EFF_typeinfo DB 01H
__C34BF88C_memory DB 01H
__EF0EAF83_xfacet DB 01H
__B2D2BA86_ctype@h DB 01H
__7D708D37_xlocinfo DB 01H
__D23FE460_xlocale DB 01H
__4495FA24_xiosbase DB 01H
__4CB88277_xlocnum DB 01H
__845859A3_ios DB 01H
__98C12F10_Leapyears@cpp DB 01H
__A2FF0B9E_istream DB 01H
__C12F3EA4_ostream DB 01H
__74AB0D97_streambuf DB 01H
__038A2AA6_iterator DB 01H
__B30C2184_iosfwd DB 01H
__1347750E_utility DB 01H
__E458E21C_xstddef DB 01H
__F54903A0_xatomic@h DB 01H
msvcjmc	ENDS
_DATA	SEGMENT
?mes@@3PAHA DD	01fH					; mes
	DD	01cH
	DD	01fH
	DD	01eH
	DD	01fH
	DD	01eH
	DD	01fH
	DD	01fH
	DD	01eH
	DD	01fH
	DD	01fH
_DATA	ENDS
PUBLIC	?__empty_global_delete@@YAXPAX@Z		; __empty_global_delete
PUBLIC	?__empty_global_delete@@YAXPAXI@Z		; __empty_global_delete
PUBLIC	??2@YAPAXIPAX@Z					; operator new
PUBLIC	??0exception@std@@QAE@QBDH@Z			; std::exception::exception
PUBLIC	??0exception@std@@QAE@ABV01@@Z			; std::exception::exception
PUBLIC	??1exception@std@@UAE@XZ			; std::exception::~exception
PUBLIC	?what@exception@std@@UBEPBDXZ			; std::exception::what
PUBLIC	??_Gexception@std@@UAEPAXI@Z			; std::exception::`scalar deleting destructor'
PUBLIC	??0bad_alloc@std@@AAE@QBD@Z			; std::bad_alloc::bad_alloc
PUBLIC	??1bad_alloc@std@@UAE@XZ			; std::bad_alloc::~bad_alloc
PUBLIC	??0bad_alloc@std@@QAE@ABV01@@Z			; std::bad_alloc::bad_alloc
PUBLIC	??_Gbad_alloc@std@@UAEPAXI@Z			; std::bad_alloc::`scalar deleting destructor'
PUBLIC	??0bad_array_new_length@std@@QAE@XZ		; std::bad_array_new_length::bad_array_new_length
PUBLIC	??1bad_array_new_length@std@@UAE@XZ		; std::bad_array_new_length::~bad_array_new_length
PUBLIC	??0bad_array_new_length@std@@QAE@ABV01@@Z	; std::bad_array_new_length::bad_array_new_length
PUBLIC	??_Gbad_array_new_length@std@@UAEPAXI@Z		; std::bad_array_new_length::`scalar deleting destructor'
PUBLIC	?_Throw_bad_array_new_length@std@@YAXXZ		; std::_Throw_bad_array_new_length
PUBLIC	?max@?$numeric_limits@H@std@@SAHXZ		; std::numeric_limits<int>::max
PUBLIC	?_Allocate@_Default_allocate_traits@std@@SAPAXI@Z ; std::_Default_allocate_traits::_Allocate
PUBLIC	?_Adjust_manually_vector_aligned@std@@YAXAAPAXAAI@Z ; std::_Adjust_manually_vector_aligned
PUBLIC	??$_Convert_size@I@std@@YAII@Z			; std::_Convert_size<unsigned int>
PUBLIC	??0_Container_proxy@std@@QAE@PAU_Container_base12@1@@Z ; std::_Container_proxy::_Container_proxy
PUBLIC	??0_Container_base12@std@@QAE@XZ		; std::_Container_base12::_Container_base12
PUBLIC	?_Orphan_all@_Container_base12@std@@QAEXXZ	; std::_Container_base12::_Orphan_all
PUBLIC	?_Orphan_all_unlocked@_Container_base12@std@@AAEXXZ ; std::_Container_base12::_Orphan_all_unlocked
PUBLIC	?_Orphan_all_locked@_Container_base12@std@@AAEXXZ ; std::_Container_base12::_Orphan_all_locked
PUBLIC	??$_Construct_in_place@U_Container_proxy@std@@PAU_Container_base12@2@@std@@YAXAAU_Container_proxy@0@$$QAPAU_Container_base12@0@@Z ; std::_Construct_in_place<std::_Container_proxy,std::_Container_base12 *>
PUBLIC	?copy@?$_Char_traits@DH@std@@SAPADQADQBDI@Z	; std::_Char_traits<char,int>::copy
PUBLIC	?move@?$_Char_traits@DH@std@@SAPADQADQBDI@Z	; std::_Char_traits<char,int>::move
PUBLIC	?length@?$_Narrow_char_traits@DH@std@@SAIQBD@Z	; std::_Narrow_char_traits<char,int>::length
PUBLIC	?assign@?$_Narrow_char_traits@DH@std@@SAXAADABD@Z ; std::_Narrow_char_traits<char,int>::assign
PUBLIC	?eq_int_type@?$_Narrow_char_traits@DH@std@@SA_NABH0@Z ; std::_Narrow_char_traits<char,int>::eq_int_type
PUBLIC	?eof@?$_Narrow_char_traits@DH@std@@SAHXZ	; std::_Narrow_char_traits<char,int>::eof
PUBLIC	?_Xlen_string@std@@YAXXZ			; std::_Xlen_string
PUBLIC	??0?$allocator@D@std@@QAE@XZ			; std::allocator<char>::allocator<char>
PUBLIC	?deallocate@?$allocator@D@std@@QAEXQADI@Z	; std::allocator<char>::deallocate
PUBLIC	?allocate@?$allocator@D@std@@QAEPADI@Z		; std::allocator<char>::allocate
PUBLIC	?max_size@?$_Default_allocator_traits@V?$allocator@D@std@@@std@@SAIABV?$allocator@D@2@@Z ; std::_Default_allocator_traits<std::allocator<char> >::max_size
PUBLIC	??0?$_String_val@U?$_Simple_types@D@std@@@std@@QAE@XZ ; std::_String_val<std::_Simple_types<char> >::_String_val<std::_Simple_types<char> >
PUBLIC	?_Myptr@?$_String_val@U?$_Simple_types@D@std@@@std@@QAEPADXZ ; std::_String_val<std::_Simple_types<char> >::_Myptr
PUBLIC	?_Myptr@?$_String_val@U?$_Simple_types@D@std@@@std@@QBEPBDXZ ; std::_String_val<std::_Simple_types<char> >::_Myptr
PUBLIC	?_Large_string_engaged@?$_String_val@U?$_Simple_types@D@std@@@std@@QBE_NXZ ; std::_String_val<std::_Simple_types<char> >::_Large_string_engaged
PUBLIC	??0_Bxty@?$_String_val@U?$_Simple_types@D@std@@@std@@QAE@XZ ; std::_String_val<std::_Simple_types<char> >::_Bxty::_Bxty
PUBLIC	??1_Bxty@?$_String_val@U?$_Simple_types@D@std@@@std@@QAE@XZ ; std::_String_val<std::_Simple_types<char> >::_Bxty::~_Bxty
PUBLIC	??1?$_String_val@U?$_Simple_types@D@std@@@std@@QAE@XZ ; std::_String_val<std::_Simple_types<char> >::~_String_val<std::_Simple_types<char> >
PUBLIC	??0?$basic_string@DU?$char_traits@D@std@@V?$allocator@D@2@@std@@QAE@XZ ; std::basic_string<char,std::char_traits<char>,std::allocator<char> >::basic_string<char,std::char_traits<char>,std::allocator<char> >
PUBLIC	??1?$basic_string@DU?$char_traits@D@std@@V?$allocator@D@2@@std@@QAE@XZ ; std::basic_string<char,std::char_traits<char>,std::allocator<char> >::~basic_string<char,std::char_traits<char>,std::allocator<char> >
PUBLIC	??4?$basic_string@DU?$char_traits@D@std@@V?$allocator@D@2@@std@@QAEAAV01@QBD@Z ; std::basic_string<char,std::char_traits<char>,std::allocator<char> >::operator=
PUBLIC	?assign@?$basic_string@DU?$char_traits@D@std@@V?$allocator@D@2@@std@@QAEAAV12@QBDI@Z ; std::basic_string<char,std::char_traits<char>,std::allocator<char> >::assign
PUBLIC	?assign@?$basic_string@DU?$char_traits@D@std@@V?$allocator@D@2@@std@@QAEAAV12@QBD@Z ; std::basic_string<char,std::char_traits<char>,std::allocator<char> >::assign
PUBLIC	?data@?$basic_string@DU?$char_traits@D@std@@V?$allocator@D@2@@std@@QBEPBDXZ ; std::basic_string<char,std::char_traits<char>,std::allocator<char> >::data
PUBLIC	?size@?$basic_string@DU?$char_traits@D@std@@V?$allocator@D@2@@std@@QBEIXZ ; std::basic_string<char,std::char_traits<char>,std::allocator<char> >::size
PUBLIC	?max_size@?$basic_string@DU?$char_traits@D@std@@V?$allocator@D@2@@std@@QBEIXZ ; std::basic_string<char,std::char_traits<char>,std::allocator<char> >::max_size
PUBLIC	?_Calculate_growth@?$basic_string@DU?$char_traits@D@std@@V?$allocator@D@2@@std@@CAIIII@Z ; std::basic_string<char,std::char_traits<char>,std::allocator<char> >::_Calculate_growth
PUBLIC	?_Calculate_growth@?$basic_string@DU?$char_traits@D@std@@V?$allocator@D@2@@std@@ABEII@Z ; std::basic_string<char,std::char_traits<char>,std::allocator<char> >::_Calculate_growth
PUBLIC	?_Tidy_init@?$basic_string@DU?$char_traits@D@std@@V?$allocator@D@2@@std@@AAEXXZ ; std::basic_string<char,std::char_traits<char>,std::allocator<char> >::_Tidy_init
PUBLIC	?_Tidy_deallocate@?$basic_string@DU?$char_traits@D@std@@V?$allocator@D@2@@std@@AAEXXZ ; std::basic_string<char,std::char_traits<char>,std::allocator<char> >::_Tidy_deallocate
PUBLIC	?_Getal@?$basic_string@DU?$char_traits@D@std@@V?$allocator@D@2@@std@@AAEAAV?$allocator@D@2@XZ ; std::basic_string<char,std::char_traits<char>,std::allocator<char> >::_Getal
PUBLIC	?_Getal@?$basic_string@DU?$char_traits@D@std@@V?$allocator@D@2@@std@@ABEABV?$allocator@D@2@XZ ; std::basic_string<char,std::char_traits<char>,std::allocator<char> >::_Getal
PUBLIC	?_Get_first@?$_Compressed_pair@V?$allocator@D@std@@V?$_String_val@U?$_Simple_types@D@std@@@2@$00@std@@QAEAAV?$allocator@D@2@XZ ; std::_Compressed_pair<std::allocator<char>,std::_String_val<std::_Simple_types<char> >,1>::_Get_first
PUBLIC	?_Get_first@?$_Compressed_pair@V?$allocator@D@std@@V?$_String_val@U?$_Simple_types@D@std@@@2@$00@std@@QBEABV?$allocator@D@2@XZ ; std::_Compressed_pair<std::allocator<char>,std::_String_val<std::_Simple_types<char> >,1>::_Get_first
PUBLIC	??1?$_Compressed_pair@V?$allocator@D@std@@V?$_String_val@U?$_Simple_types@D@std@@@2@$00@std@@QAE@XZ ; std::_Compressed_pair<std::allocator<char>,std::_String_val<std::_Simple_types<char> >,1>::~_Compressed_pair<std::allocator<char>,std::_String_val<std::_Simple_types<char> >,1>
PUBLIC	?count@@YAHHHQAH@Z				; count
PUBLIC	?prov@@YAHHHH@Z					; prov
PUBLIC	?visok_god@@YAXH@Z				; visok_god
PUBLIC	_main
PUBLIC	??$?6U?$char_traits@D@std@@@std@@YAAAV?$basic_ostream@DU?$char_traits@D@std@@@0@AAV10@PBD@Z ; std::operator<<<std::char_traits<char> >
PUBLIC	??$endl@DU?$char_traits@D@std@@@std@@YAAAV?$basic_ostream@DU?$char_traits@D@std@@@0@AAV10@@Z ; std::endl<char,std::char_traits<char> >
PUBLIC	??$?6DU?$char_traits@D@std@@V?$allocator@D@1@@std@@YAAAV?$basic_ostream@DU?$char_traits@D@std@@@0@AAV10@ABV?$basic_string@DU?$char_traits@D@std@@V?$allocator@D@2@@0@@Z ; std::operator<<<char,std::char_traits<char>,std::allocator<char> >
PUBLIC	??0_Sentry_base@?$basic_ostream@DU?$char_traits@D@std@@@std@@QAE@AAV12@@Z ; std::basic_ostream<char,std::char_traits<char> >::_Sentry_base::_Sentry_base
PUBLIC	??1_Sentry_base@?$basic_ostream@DU?$char_traits@D@std@@@std@@QAE@XZ ; std::basic_ostream<char,std::char_traits<char> >::_Sentry_base::~_Sentry_base
PUBLIC	??0sentry@?$basic_ostream@DU?$char_traits@D@std@@@std@@QAE@AAV12@@Z ; std::basic_ostream<char,std::char_traits<char> >::sentry::sentry
PUBLIC	??1sentry@?$basic_ostream@DU?$char_traits@D@std@@@std@@QAE@XZ ; std::basic_ostream<char,std::char_traits<char> >::sentry::~sentry
PUBLIC	??Bsentry@?$basic_ostream@DU?$char_traits@D@std@@@std@@QBE_NXZ ; std::basic_ostream<char,std::char_traits<char> >::sentry::operator bool
PUBLIC	??$min@I@std@@YAABIABI0@Z			; std::min<unsigned int>
PUBLIC	?allocate@?$allocator@U_Container_proxy@std@@@std@@QAEPAU_Container_proxy@2@I@Z ; std::allocator<std::_Container_proxy>::allocate
PUBLIC	??$_Delete_plain_internal@V?$allocator@U_Container_proxy@std@@@std@@@std@@YAXAAV?$allocator@U_Container_proxy@std@@@0@QAU_Container_proxy@0@@Z ; std::_Delete_plain_internal<std::allocator<std::_Container_proxy> >
PUBLIC	??$?0D@?$allocator@U_Container_proxy@std@@@std@@QAE@ABV?$allocator@D@1@@Z ; std::allocator<std::_Container_proxy>::allocator<std::_Container_proxy><char>
PUBLIC	??$_Alloc_proxy@V?$allocator@U_Container_proxy@std@@@std@@@_Container_base12@std@@QAEX$$QAV?$allocator@U_Container_proxy@std@@@1@@Z ; std::_Container_base12::_Alloc_proxy<std::allocator<std::_Container_proxy> >
PUBLIC	??$?0$$V@?$_Compressed_pair@V?$allocator@D@std@@V?$_String_val@U?$_Simple_types@D@std@@@2@$00@std@@QAE@U_Zero_then_variadic_args_t@1@@Z ; std::_Compressed_pair<std::allocator<char>,std::_String_val<std::_Simple_types<char> >,1>::_Compressed_pair<std::allocator<char>,std::_String_val<std::_Simple_types<char> >,1><>
PUBLIC	??$_Unfancy@U_Container_proxy@std@@@std@@YAPAU_Container_proxy@0@PAU10@@Z ; std::_Unfancy<std::_Container_proxy>
PUBLIC	??$_Destroy_in_place@PAD@std@@YAXAAPAD@Z	; std::_Destroy_in_place<char *>
PUBLIC	??R<lambda_9366063389c5f42a00a5088cf24e69de>@@QBE@QADIQBD@Z ; <lambda_9366063389c5f42a00a5088cf24e69de>::operator()
PUBLIC	??$_Reallocate_for@V<lambda_9366063389c5f42a00a5088cf24e69de>@@PBD@?$basic_string@DU?$char_traits@D@std@@V?$allocator@D@2@@std@@AAEAAV01@IV<lambda_9366063389c5f42a00a5088cf24e69de>@@PBD@Z ; std::basic_string<char,std::char_traits<char>,std::allocator<char> >::_Reallocate_for<<lambda_9366063389c5f42a00a5088cf24e69de>,char const *>
PUBLIC	??$_Construct_in_place@PADABQAD@std@@YAXAAPADABQAD@Z ; std::_Construct_in_place<char *,char * const &>
PUBLIC	??$_Unfancy@D@std@@YAPADPAD@Z			; std::_Unfancy<char>
PUBLIC	??$max@I@std@@YAABIABI0@Z			; std::max<unsigned int>
PUBLIC	??$_Get_size_of_n@$07@std@@YAII@Z		; std::_Get_size_of_n<8>
PUBLIC	??$_Allocate@$07U_Default_allocate_traits@std@@$0A@@std@@YAPAXI@Z ; std::_Allocate<8,std::_Default_allocate_traits,0>
PUBLIC	??$_Deallocate@$07$0A@@std@@YAXPAXI@Z		; std::_Deallocate<8,0>
PUBLIC	??$_Get_size_of_n@$00@std@@YAII@Z		; std::_Get_size_of_n<1>
PUBLIC	??$addressof@U_Container_proxy@std@@@std@@YAPAU_Container_proxy@0@AAU10@@Z ; std::addressof<std::_Container_proxy>
PUBLIC	??$_Voidify_iter@PAU_Container_proxy@std@@@std@@YAPAXPAU_Container_proxy@0@@Z ; std::_Voidify_iter<std::_Container_proxy *>
PUBLIC	??$forward@PAU_Container_base12@std@@@std@@YA$$QAPAU_Container_base12@0@AAPAU10@@Z ; std::forward<std::_Container_base12 *>
PUBLIC	??$_Insert_string@DU?$char_traits@D@std@@I@std@@YAAAV?$basic_ostream@DU?$char_traits@D@std@@@0@AAV10@QBDI@Z ; std::_Insert_string<char,std::char_traits<char>,unsigned int>
PUBLIC	??$_Deallocate_plain@V?$allocator@U_Container_proxy@std@@@std@@@std@@YAXAAV?$allocator@U_Container_proxy@std@@@0@QAU_Container_proxy@0@@Z ; std::_Deallocate_plain<std::allocator<std::_Container_proxy> >
PUBLIC	??$addressof@PAD@std@@YAPAPADAAPAD@Z		; std::addressof<char *>
PUBLIC	??$_Voidify_iter@PAPAD@std@@YAPAXPAPAD@Z	; std::_Voidify_iter<char * *>
PUBLIC	??$forward@ABQAD@std@@YAABQADABQAD@Z		; std::forward<char * const &>
PUBLIC	??$_Allocate_manually_vector_aligned@U_Default_allocate_traits@std@@@std@@YAPAXI@Z ; std::_Allocate_manually_vector_aligned<std::_Default_allocate_traits>
PUBLIC	?deallocate@?$_Default_allocator_traits@V?$allocator@U_Container_proxy@std@@@std@@@std@@SAXAAV?$allocator@U_Container_proxy@std@@@2@QAU_Container_proxy@2@I@Z ; std::_Default_allocator_traits<std::allocator<std::_Container_proxy> >::deallocate
PUBLIC	__JustMyCode_Default
PUBLIC	??_7exception@std@@6B@				; std::exception::`vftable'
PUBLIC	??_C@_0BC@EOODALEL@Unknown?5exception@		; `string'
PUBLIC	??_7bad_alloc@std@@6B@				; std::bad_alloc::`vftable'
PUBLIC	??_7bad_array_new_length@std@@6B@		; std::bad_array_new_length::`vftable'
PUBLIC	??_C@_0BF@KINCDENJ@bad?5array?5new?5length@	; `string'
PUBLIC	__TI3?AVbad_array_new_length@std@@
PUBLIC	__CTA3?AVbad_array_new_length@std@@
PUBLIC	??_R0?AVbad_array_new_length@std@@@8		; std::bad_array_new_length `RTTI Type Descriptor'
PUBLIC	__CT??_R0?AVbad_array_new_length@std@@@8??0bad_array_new_length@std@@QAE@ABV01@@Z12
PUBLIC	??_R0?AVbad_alloc@std@@@8			; std::bad_alloc `RTTI Type Descriptor'
PUBLIC	__CT??_R0?AVbad_alloc@std@@@8??0bad_alloc@std@@QAE@ABV01@@Z12
PUBLIC	??_R0?AVexception@std@@@8			; std::exception `RTTI Type Descriptor'
PUBLIC	__CT??_R0?AVexception@std@@@8??0exception@std@@QAE@ABV01@@Z12
PUBLIC	?__LINE__Var@?0??_Adjust_manually_vector_aligned@std@@YAXAAPAXAAI@Z@4JA ; `std::_Adjust_manually_vector_aligned'::`1'::__LINE__Var
PUBLIC	??_C@_0BB@FCMFBGOM@invalid?5argument@		; `string'
PUBLIC	??_C@_02DKCKIIND@?$CFs@				; `string'
PUBLIC	??_C@_0GI@MNEMJBML@C?3?2Program?5Files?5?$CIx86?$CJ?2Microsof@ ; `string'
PUBLIC	??_C@_1NA@MJBOBEJL@?$AAC?$AA?3?$AA?2?$AAP?$AAr?$AAo?$AAg?$AAr?$AAa?$AAm?$AA?5?$AAF?$AAi?$AAl?$AAe@ ; `string'
PUBLIC	??_C@_1EK@NIFDJFDG@?$AAs?$AAt?$AAd?$AA?3?$AA?3?$AA_?$AAA?$AAd?$AAj?$AAu?$AAs?$AAt?$AA_?$AAm?$AAa@ ; `string'
PUBLIC	??_C@_1CG@JNLFBNGN@?$AA?$CC?$AAi?$AAn?$AAv?$AAa?$AAl?$AAi?$AAd?$AA?5?$AAa?$AAr?$AAg?$AAu?$AAm?$AAe@ ; `string'
PUBLIC	??_C@_0BA@JFNIOLAK@string?5too?5long@		; `string'
PUBLIC	?vis@@3V?$basic_string@DU?$char_traits@D@std@@V?$allocator@D@2@@std@@A ; vis
PUBLIC	??_C@_07PEAPJBGG@Russian@			; `string'
PUBLIC	??_C@_0BB@BCFBHNM@?5?B?b?e?d?h?r?e?5?d?$OA?r?s?3?5?5@ ; `string'
PUBLIC	??_C@_0BK@MDIOBJCF@?6?M?e?j?n?p?p?e?j?r?m?n?5?b?b?e?d?e?m?$OA?5?d?$OA?r?$OA@ ; `string'
PUBLIC	??_C@_07CLDOPFAM@?B?b?e?d?h?r?e@		; `string'
PUBLIC	??_C@_0DI@JBEJIHMI@1?9?n?o?p?e?d?e?k?h?r?$PM?0?5?$PP?b?k?$PP?e?r?q?$PP?5?k?h?5?b?b?e?d?e@ ; `string'
PUBLIC	??_C@_0DI@IINHBCLJ@2?9?b?$PL?w?h?q?k?h?r?$PM?5?o?n?p?$PP?d?j?n?b?$PL?i?5?m?n?l?e?p?5?b?b@ ; `string'
PUBLIC	??_C@_0EE@GLEFEPOP@3?9?b?$PL?w?h?q?k?h?r?$PM?5?q?j?n?k?$PM?j?n?5?d?m?e?i?5?n?q?r?$OA?k?n@ ; `string'
PUBLIC	??_C@_07HJIONDFP@4?9?b?$PL?u?n?d@		; `string'
PUBLIC	??_C@_0BE@GDJPIMPF@?5?o?n?p?$PP?d?j?n?b?$PL?i?5?m?n?l?e?p?3?5@ ; `string'
PUBLIC	??_C@_0CE@ENCNGIEO@?B?b?e?d?h?r?e?5?d?$OA?r?s?5?h?5?l?e?q?$PP?v?5?d?m?$PP?5?p?n?f?d?e?m@ ; `string'
PUBLIC	??_C@_0BL@KMDPNDAB@?D?n?5?d?m?$PP?5?p?n?f?d?e?m?h?$PP?5?n?q?r?$OA?k?n?q?$PM?3?5@ ; `string'
PUBLIC	??_C@_0BE@LKGFEEBC@?5?M?e?5?b?h?q?n?j?n?q?m?$PL?i?5?c?n?d?5@ ; `string'
PUBLIC	??_C@_0BA@DHADGGDH@?B?h?q?n?j?n?q?m?$PL?i?5?c?n?d?5@ ; `string'
PUBLIC	??_C@_1EO@GFNCMDLA@?$AAs?$AAt?$AAd?$AA?3?$AA?3?$AA_?$AAA?$AAl?$AAl?$AAo?$AAc?$AAa?$AAt?$AAe?$AA_@ ; `string'
PUBLIC	??_R4exception@std@@6B@				; std::exception::`RTTI Complete Object Locator'
PUBLIC	??_R3exception@std@@8				; std::exception::`RTTI Class Hierarchy Descriptor'
PUBLIC	??_R2exception@std@@8				; std::exception::`RTTI Base Class Array'
PUBLIC	??_R1A@?0A@EA@exception@std@@8			; std::exception::`RTTI Base Class Descriptor at (0,-1,0,64)'
PUBLIC	??_R4bad_alloc@std@@6B@				; std::bad_alloc::`RTTI Complete Object Locator'
PUBLIC	??_R3bad_alloc@std@@8				; std::bad_alloc::`RTTI Class Hierarchy Descriptor'
PUBLIC	??_R2bad_alloc@std@@8				; std::bad_alloc::`RTTI Base Class Array'
PUBLIC	??_R1A@?0A@EA@bad_alloc@std@@8			; std::bad_alloc::`RTTI Base Class Descriptor at (0,-1,0,64)'
PUBLIC	??_R4bad_array_new_length@std@@6B@		; std::bad_array_new_length::`RTTI Complete Object Locator'
PUBLIC	??_R3bad_array_new_length@std@@8		; std::bad_array_new_length::`RTTI Class Hierarchy Descriptor'
PUBLIC	??_R2bad_array_new_length@std@@8		; std::bad_array_new_length::`RTTI Base Class Array'
PUBLIC	??_R1A@?0A@EA@bad_array_new_length@std@@8	; std::bad_array_new_length::`RTTI Base Class Descriptor at (0,-1,0,64)'
EXTRN	??2@YAPAXI@Z:PROC				; operator new
EXTRN	??3@YAXPAXI@Z:PROC				; operator delete
EXTRN	_atexit:PROC
EXTRN	__imp___invalid_parameter:PROC
EXTRN	__imp___CrtDbgReport:PROC
EXTRN	__imp_??0_Lockit@std@@QAE@H@Z:PROC
EXTRN	__imp_??1_Lockit@std@@QAE@XZ:PROC
EXTRN	_abs:PROC
EXTRN	_memcpy:PROC
EXTRN	_memmove:PROC
EXTRN	_strlen:PROC
EXTRN	?_Xlength_error@std@@YAXPBD@Z:PROC		; std::_Xlength_error
EXTRN	?uncaught_exception@std@@YA_NXZ:PROC		; std::uncaught_exception
EXTRN	___std_exception_copy:PROC
EXTRN	___std_exception_destroy:PROC
EXTRN	??_Eexception@std@@UAEPAXI@Z:PROC		; std::exception::`vector deleting destructor'
EXTRN	??_Ebad_alloc@std@@UAEPAXI@Z:PROC		; std::bad_alloc::`vector deleting destructor'
EXTRN	??_Ebad_array_new_length@std@@UAEPAXI@Z:PROC	; std::bad_array_new_length::`vector deleting destructor'
EXTRN	__imp__setlocale:PROC
EXTRN	__imp_?good@ios_base@std@@QBE_NXZ:PROC
EXTRN	__imp_?flags@ios_base@std@@QBEHXZ:PROC
EXTRN	__imp_?width@ios_base@std@@QBE_JXZ:PROC
EXTRN	__imp_?width@ios_base@std@@QAE_J_J@Z:PROC
EXTRN	__imp_?sputc@?$basic_streambuf@DU?$char_traits@D@std@@@std@@QAEHD@Z:PROC
EXTRN	__imp_?sputn@?$basic_streambuf@DU?$char_traits@D@std@@@std@@QAE_JPBD_J@Z:PROC
EXTRN	__imp_?setstate@?$basic_ios@DU?$char_traits@D@std@@@std@@QAEXH_N@Z:PROC
EXTRN	__imp_?tie@?$basic_ios@DU?$char_traits@D@std@@@std@@QBEPAV?$basic_ostream@DU?$char_traits@D@std@@@2@XZ:PROC
EXTRN	__imp_?rdbuf@?$basic_ios@DU?$char_traits@D@std@@@std@@QBEPAV?$basic_streambuf@DU?$char_traits@D@std@@@2@XZ:PROC
EXTRN	__imp_?fill@?$basic_ios@DU?$char_traits@D@std@@@std@@QBEDXZ:PROC
EXTRN	__imp_?widen@?$basic_ios@DU?$char_traits@D@std@@@std@@QBEDD@Z:PROC
EXTRN	__imp_?_Osfx@?$basic_ostream@DU?$char_traits@D@std@@@std@@QAEXXZ:PROC
EXTRN	__imp_??6?$basic_ostream@DU?$char_traits@D@std@@@std@@QAEAAV01@P6AAAV01@AAV01@@Z@Z:PROC
EXTRN	__imp_??6?$basic_ostream@DU?$char_traits@D@std@@@std@@QAEAAV01@H@Z:PROC
EXTRN	__imp_?put@?$basic_ostream@DU?$char_traits@D@std@@@std@@QAEAAV12@D@Z:PROC
EXTRN	__imp_?flush@?$basic_ostream@DU?$char_traits@D@std@@@std@@QAEAAV12@XZ:PROC
EXTRN	__imp_??5?$basic_istream@DU?$char_traits@D@std@@@std@@QAEAAV01@AAH@Z:PROC
EXTRN	@_RTC_CheckStackVars@8:PROC
EXTRN	@__CheckForDebuggerJustMyCode@4:PROC
EXTRN	@__security_check_cookie@4:PROC
EXTRN	__CxxThrowException@8:PROC
EXTRN	__RTC_CheckEsp:PROC
EXTRN	__RTC_InitBase:PROC
EXTRN	__RTC_Shutdown:PROC
EXTRN	___CxxFrameHandler3:PROC
EXTRN	??_7type_info@@6B@:QWORD			; type_info::`vftable'
EXTRN	__imp_?cin@std@@3V?$basic_istream@DU?$char_traits@D@std@@@1@A:BYTE
EXTRN	__imp_?cout@std@@3V?$basic_ostream@DU?$char_traits@D@std@@@1@A:BYTE
EXTRN	___security_cookie:DWORD
_BSS	SEGMENT
?vis@@3V?$basic_string@DU?$char_traits@D@std@@V?$allocator@D@2@@std@@A DB 01cH DUP (?) ; vis
_BSS	ENDS
CRT$XCU	SEGMENT
?vis$initializer$@@3P6AXXZA DD FLAT:??__Evis@@YAXXZ	; vis$initializer$
CRT$XCU	ENDS
;	COMDAT rtc$TMZ
rtc$TMZ	SEGMENT
__RTC_Shutdown.rtc$TMZ DD FLAT:__RTC_Shutdown
rtc$TMZ	ENDS
;	COMDAT rtc$IMZ
rtc$IMZ	SEGMENT
__RTC_InitBase.rtc$IMZ DD FLAT:__RTC_InitBase
rtc$IMZ	ENDS
;	COMDAT ??_R1A@?0A@EA@bad_array_new_length@std@@8
rdata$r	SEGMENT
??_R1A@?0A@EA@bad_array_new_length@std@@8 DD FLAT:??_R0?AVbad_array_new_length@std@@@8 ; std::bad_array_new_length::`RTTI Base Class Descriptor at (0,-1,0,64)'
	DD	02H
	DD	00H
	DD	0ffffffffH
	DD	00H
	DD	040H
	DD	FLAT:??_R3bad_array_new_length@std@@8
rdata$r	ENDS
;	COMDAT ??_R2bad_array_new_length@std@@8
rdata$r	SEGMENT
??_R2bad_array_new_length@std@@8 DD FLAT:??_R1A@?0A@EA@bad_array_new_length@std@@8 ; std::bad_array_new_length::`RTTI Base Class Array'
	DD	FLAT:??_R1A@?0A@EA@bad_alloc@std@@8
	DD	FLAT:??_R1A@?0A@EA@exception@std@@8
rdata$r	ENDS
;	COMDAT ??_R3bad_array_new_length@std@@8
rdata$r	SEGMENT
??_R3bad_array_new_length@std@@8 DD 00H			; std::bad_array_new_length::`RTTI Class Hierarchy Descriptor'
	DD	00H
	DD	03H
	DD	FLAT:??_R2bad_array_new_length@std@@8
rdata$r	ENDS
;	COMDAT ??_R4bad_array_new_length@std@@6B@
rdata$r	SEGMENT
??_R4bad_array_new_length@std@@6B@ DD 00H		; std::bad_array_new_length::`RTTI Complete Object Locator'
	DD	00H
	DD	00H
	DD	FLAT:??_R0?AVbad_array_new_length@std@@@8
	DD	FLAT:??_R3bad_array_new_length@std@@8
rdata$r	ENDS
;	COMDAT ??_R1A@?0A@EA@bad_alloc@std@@8
rdata$r	SEGMENT
??_R1A@?0A@EA@bad_alloc@std@@8 DD FLAT:??_R0?AVbad_alloc@std@@@8 ; std::bad_alloc::`RTTI Base Class Descriptor at (0,-1,0,64)'
	DD	01H
	DD	00H
	DD	0ffffffffH
	DD	00H
	DD	040H
	DD	FLAT:??_R3bad_alloc@std@@8
rdata$r	ENDS
;	COMDAT ??_R2bad_alloc@std@@8
rdata$r	SEGMENT
??_R2bad_alloc@std@@8 DD FLAT:??_R1A@?0A@EA@bad_alloc@std@@8 ; std::bad_alloc::`RTTI Base Class Array'
	DD	FLAT:??_R1A@?0A@EA@exception@std@@8
rdata$r	ENDS
;	COMDAT ??_R3bad_alloc@std@@8
rdata$r	SEGMENT
??_R3bad_alloc@std@@8 DD 00H				; std::bad_alloc::`RTTI Class Hierarchy Descriptor'
	DD	00H
	DD	02H
	DD	FLAT:??_R2bad_alloc@std@@8
rdata$r	ENDS
;	COMDAT ??_R4bad_alloc@std@@6B@
rdata$r	SEGMENT
??_R4bad_alloc@std@@6B@ DD 00H				; std::bad_alloc::`RTTI Complete Object Locator'
	DD	00H
	DD	00H
	DD	FLAT:??_R0?AVbad_alloc@std@@@8
	DD	FLAT:??_R3bad_alloc@std@@8
rdata$r	ENDS
;	COMDAT ??_R1A@?0A@EA@exception@std@@8
rdata$r	SEGMENT
??_R1A@?0A@EA@exception@std@@8 DD FLAT:??_R0?AVexception@std@@@8 ; std::exception::`RTTI Base Class Descriptor at (0,-1,0,64)'
	DD	00H
	DD	00H
	DD	0ffffffffH
	DD	00H
	DD	040H
	DD	FLAT:??_R3exception@std@@8
rdata$r	ENDS
;	COMDAT ??_R2exception@std@@8
rdata$r	SEGMENT
??_R2exception@std@@8 DD FLAT:??_R1A@?0A@EA@exception@std@@8 ; std::exception::`RTTI Base Class Array'
rdata$r	ENDS
;	COMDAT ??_R3exception@std@@8
rdata$r	SEGMENT
??_R3exception@std@@8 DD 00H				; std::exception::`RTTI Class Hierarchy Descriptor'
	DD	00H
	DD	01H
	DD	FLAT:??_R2exception@std@@8
rdata$r	ENDS
;	COMDAT ??_R4exception@std@@6B@
rdata$r	SEGMENT
??_R4exception@std@@6B@ DD 00H				; std::exception::`RTTI Complete Object Locator'
	DD	00H
	DD	00H
	DD	FLAT:??_R0?AVexception@std@@@8
	DD	FLAT:??_R3exception@std@@8
rdata$r	ENDS
;	COMDAT ??_C@_1EO@GFNCMDLA@?$AAs?$AAt?$AAd?$AA?3?$AA?3?$AA_?$AAA?$AAl?$AAl?$AAo?$AAc?$AAa?$AAt?$AAe?$AA_@
CONST	SEGMENT
??_C@_1EO@GFNCMDLA@?$AAs?$AAt?$AAd?$AA?3?$AA?3?$AA_?$AAA?$AAl?$AAl?$AAo?$AAc?$AAa?$AAt?$AAe?$AA_@ DB 's'
	DB	00H, 't', 00H, 'd', 00H, ':', 00H, ':', 00H, '_', 00H, 'A', 00H
	DB	'l', 00H, 'l', 00H, 'o', 00H, 'c', 00H, 'a', 00H, 't', 00H, 'e'
	DB	00H, '_', 00H, 'm', 00H, 'a', 00H, 'n', 00H, 'u', 00H, 'a', 00H
	DB	'l', 00H, 'l', 00H, 'y', 00H, '_', 00H, 'v', 00H, 'e', 00H, 'c'
	DB	00H, 't', 00H, 'o', 00H, 'r', 00H, '_', 00H, 'a', 00H, 'l', 00H
	DB	'i', 00H, 'g', 00H, 'n', 00H, 'e', 00H, 'd', 00H, 00H, 00H ; `string'
CONST	ENDS
;	COMDAT ??_C@_0BA@DHADGGDH@?B?h?q?n?j?n?q?m?$PL?i?5?c?n?d?5@
CONST	SEGMENT
??_C@_0BA@DHADGGDH@?B?h?q?n?j?n?q?m?$PL?i?5?c?n?d?5@ DB 0c2H, 0e8H, 0f1H, 0eeH
	DB	0eaH, 0eeH, 0f1H, 0edH, 0fbH, 0e9H, ' ', 0e3H, 0eeH, 0e4H, ' ', 00H ; `string'
CONST	ENDS
;	COMDAT ??_C@_0BE@LKGFEEBC@?5?M?e?5?b?h?q?n?j?n?q?m?$PL?i?5?c?n?d?5@
CONST	SEGMENT
??_C@_0BE@LKGFEEBC@?5?M?e?5?b?h?q?n?j?n?q?m?$PL?i?5?c?n?d?5@ DB ' ', 0cdH
	DB	0e5H, ' ', 0e2H, 0e8H, 0f1H, 0eeH, 0eaH, 0eeH, 0f1H, 0edH, 0fbH
	DB	0e9H, ' ', 0e3H, 0eeH, 0e4H, ' ', 00H	; `string'
CONST	ENDS
;	COMDAT ??_C@_0BL@KMDPNDAB@?D?n?5?d?m?$PP?5?p?n?f?d?e?m?h?$PP?5?n?q?r?$OA?k?n?q?$PM?3?5@
CONST	SEGMENT
??_C@_0BL@KMDPNDAB@?D?n?5?d?m?$PP?5?p?n?f?d?e?m?h?$PP?5?n?q?r?$OA?k?n?q?$PM?3?5@ DB 0c4H
	DB	0eeH, ' ', 0e4H, 0edH, 0ffH, ' ', 0f0H, 0eeH, 0e6H, 0e4H, 0e5H
	DB	0edH, 0e8H, 0ffH, ' ', 0eeH, 0f1H, 0f2H, 0e0H, 0ebH, 0eeH, 0f1H
	DB	0fcH, ': ', 00H				; `string'
CONST	ENDS
;	COMDAT ??_C@_0CE@ENCNGIEO@?B?b?e?d?h?r?e?5?d?$OA?r?s?5?h?5?l?e?q?$PP?v?5?d?m?$PP?5?p?n?f?d?e?m@
CONST	SEGMENT
??_C@_0CE@ENCNGIEO@?B?b?e?d?h?r?e?5?d?$OA?r?s?5?h?5?l?e?q?$PP?v?5?d?m?$PP?5?p?n?f?d?e?m@ DB 0c2H
	DB	0e2H, 0e5H, 0e4H, 0e8H, 0f2H, 0e5H, ' ', 0e4H, 0e0H, 0f2H, 0f3H
	DB	' ', 0e8H, ' ', 0ecH, 0e5H, 0f1H, 0ffH, 0f6H, ' ', 0e4H, 0edH, 0ffH
	DB	' ', 0f0H, 0eeH, 0e6H, 0e4H, 0e5H, 0edH, 0e8H, 0ffH, ': ', 00H ; `string'
CONST	ENDS
;	COMDAT ??_C@_0BE@GDJPIMPF@?5?o?n?p?$PP?d?j?n?b?$PL?i?5?m?n?l?e?p?3?5@
CONST	SEGMENT
??_C@_0BE@GDJPIMPF@?5?o?n?p?$PP?d?j?n?b?$PL?i?5?m?n?l?e?p?3?5@ DB ' ', 0efH
	DB	0eeH, 0f0H, 0ffH, 0e4H, 0eaH, 0eeH, 0e2H, 0fbH, 0e9H, ' ', 0edH
	DB	0eeH, 0ecH, 0e5H, 0f0H, ': ', 00H		; `string'
CONST	ENDS
;	COMDAT ??_C@_07HJIONDFP@4?9?b?$PL?u?n?d@
CONST	SEGMENT
??_C@_07HJIONDFP@4?9?b?$PL?u?n?d@ DB '4-', 0e2H, 0fbH, 0f5H, 0eeH, 0e4H, 00H ; `string'
CONST	ENDS
;	COMDAT ??_C@_0EE@GLEFEPOP@3?9?b?$PL?w?h?q?k?h?r?$PM?5?q?j?n?k?$PM?j?n?5?d?m?e?i?5?n?q?r?$OA?k?n@
CONST	SEGMENT
??_C@_0EE@GLEFEPOP@3?9?b?$PL?w?h?q?k?h?r?$PM?5?q?j?n?k?$PM?j?n?5?d?m?e?i?5?n?q?r?$OA?k?n@ DB '3'
	DB	'-', 0e2H, 0fbH, 0f7H, 0e8H, 0f1H, 0ebH, 0e8H, 0f2H, 0fcH, ' ', 0f1H
	DB	0eaH, 0eeH, 0ebH, 0fcH, 0eaH, 0eeH, ' ', 0e4H, 0edH, 0e5H, 0e9H
	DB	' ', 0eeH, 0f1H, 0f2H, 0e0H, 0ebH, 0eeH, 0f1H, 0fcH, ' ', 0e4H
	DB	0eeH, ' ', 0e1H, 0ebH, 0e8H, 0e6H, 0e0H, 0e9H, 0f8H, 0e5H, 0e3H
	DB	0eeH, ' ', 0e4H, 0edH, 0ffH, ' ', 0e2H, 0e0H, 0f8H, 0e5H, 0e3H
	DB	'o ', 0f0H, 0eeH, 0e6H, 0e4H, 0e5H, 0edH, 0e8H, 0ffH, 00H ; `string'
CONST	ENDS
;	COMDAT ??_C@_0DI@IINHBCLJ@2?9?b?$PL?w?h?q?k?h?r?$PM?5?o?n?p?$PP?d?j?n?b?$PL?i?5?m?n?l?e?p?5?b?b@
CONST	SEGMENT
??_C@_0DI@IINHBCLJ@2?9?b?$PL?w?h?q?k?h?r?$PM?5?o?n?p?$PP?d?j?n?b?$PL?i?5?m?n?l?e?p?5?b?b@ DB '2'
	DB	'-', 0e2H, 0fbH, 0f7H, 0e8H, 0f1H, 0ebH, 0e8H, 0f2H, 0fcH, ' ', 0efH
	DB	0eeH, 0f0H, 0ffH, 0e4H, 0eaH, 0eeH, 0e2H, 0fbH, 0e9H, ' ', 0edH
	DB	0eeH, 0ecH, 0e5H, 0f0H, ' ', 0e2H, 0e2H, 0e5H, 0e4H, 0e5H, 0edH
	DB	0edH, 0eeH, 0e3H, 0eeH, ' ', 0e4H, 0edH, 0ffH, ' ', 0e2H, ' ', 0e3H
	DB	0eeH, 0e4H, 0f3H, ' ', 0c3H, 0c3H, 0c3H, 0c3H, 00H ; `string'
CONST	ENDS
;	COMDAT ??_C@_0DI@JBEJIHMI@1?9?n?o?p?e?d?e?k?h?r?$PM?0?5?$PP?b?k?$PP?e?r?q?$PP?5?k?h?5?b?b?e?d?e@
CONST	SEGMENT
??_C@_0DI@JBEJIHMI@1?9?n?o?p?e?d?e?k?h?r?$PM?0?5?$PP?b?k?$PP?e?r?q?$PP?5?k?h?5?b?b?e?d?e@ DB '1'
	DB	'-', 0eeH, 0efH, 0f0H, 0e5H, 0e4H, 0e5H, 0ebH, 0e8H, 0f2H, 0fcH
	DB	', ', 0ffH, 0e2H, 0ebH, 0ffH, 0e5H, 0f2H, 0f1H, 0ffH, ' ', 0ebH
	DB	0e8H, ' ', 0e2H, 0e2H, 0e5H, 0e4H, 0e5H, 0edH, 0edH, 0fbH, 0e9H
	DB	' ', 0e3H, 0eeH, 0e4H, ' ', 0c3H, 0c3H, 0c3H, 0c3H, ' ', 0e2H, 0e8H
	DB	0f1H, 0eeH, 0eaH, 0eeH, 0f1H, 0edH, 0fbH, 0ecH, 00H ; `string'
CONST	ENDS
;	COMDAT ??_C@_07CLDOPFAM@?B?b?e?d?h?r?e@
CONST	SEGMENT
??_C@_07CLDOPFAM@?B?b?e?d?h?r?e@ DB 0c2H, 0e2H, 0e5H, 0e4H, 0e8H, 0f2H, 0e5H
	DB	00H						; `string'
CONST	ENDS
;	COMDAT ??_C@_0BK@MDIOBJCF@?6?M?e?j?n?p?p?e?j?r?m?n?5?b?b?e?d?e?m?$OA?5?d?$OA?r?$OA@
CONST	SEGMENT
??_C@_0BK@MDIOBJCF@?6?M?e?j?n?p?p?e?j?r?m?n?5?b?b?e?d?e?m?$OA?5?d?$OA?r?$OA@ DB 0aH
	DB	0cdH, 0e5H, 0eaH, 0eeH, 0f0H, 0f0H, 0e5H, 0eaH, 0f2H, 0edH, 0eeH
	DB	' ', 0e2H, 0e2H, 0e5H, 0e4H, 0e5H, 0edH, 0e0H, ' ', 0e4H, 0e0H
	DB	0f2H, 0e0H, 00H				; `string'
CONST	ENDS
;	COMDAT ??_C@_0BB@BCFBHNM@?5?B?b?e?d?h?r?e?5?d?$OA?r?s?3?5?5@
CONST	SEGMENT
??_C@_0BB@BCFBHNM@?5?B?b?e?d?h?r?e?5?d?$OA?r?s?3?5?5@ DB ' ', 0c2H, 0e2H, 0e5H
	DB	0e4H, 0e8H, 0f2H, 0e5H, ' ', 0e4H, 0e0H, 0f2H, 0f3H, ':  ', 00H ; `string'
CONST	ENDS
;	COMDAT ??_C@_07PEAPJBGG@Russian@
CONST	SEGMENT
??_C@_07PEAPJBGG@Russian@ DB 'Russian', 00H		; `string'
CONST	ENDS
;	COMDAT ??_C@_0BA@JFNIOLAK@string?5too?5long@
CONST	SEGMENT
??_C@_0BA@JFNIOLAK@string?5too?5long@ DB 'string too long', 00H ; `string'
CONST	ENDS
;	COMDAT ??_C@_1CG@JNLFBNGN@?$AA?$CC?$AAi?$AAn?$AAv?$AAa?$AAl?$AAi?$AAd?$AA?5?$AAa?$AAr?$AAg?$AAu?$AAm?$AAe@
CONST	SEGMENT
??_C@_1CG@JNLFBNGN@?$AA?$CC?$AAi?$AAn?$AAv?$AAa?$AAl?$AAi?$AAd?$AA?5?$AAa?$AAr?$AAg?$AAu?$AAm?$AAe@ DB '"'
	DB	00H, 'i', 00H, 'n', 00H, 'v', 00H, 'a', 00H, 'l', 00H, 'i', 00H
	DB	'd', 00H, ' ', 00H, 'a', 00H, 'r', 00H, 'g', 00H, 'u', 00H, 'm'
	DB	00H, 'e', 00H, 'n', 00H, 't', 00H, '"', 00H, 00H, 00H ; `string'
CONST	ENDS
;	COMDAT ??_C@_1EK@NIFDJFDG@?$AAs?$AAt?$AAd?$AA?3?$AA?3?$AA_?$AAA?$AAd?$AAj?$AAu?$AAs?$AAt?$AA_?$AAm?$AAa@
CONST	SEGMENT
??_C@_1EK@NIFDJFDG@?$AAs?$AAt?$AAd?$AA?3?$AA?3?$AA_?$AAA?$AAd?$AAj?$AAu?$AAs?$AAt?$AA_?$AAm?$AAa@ DB 's'
	DB	00H, 't', 00H, 'd', 00H, ':', 00H, ':', 00H, '_', 00H, 'A', 00H
	DB	'd', 00H, 'j', 00H, 'u', 00H, 's', 00H, 't', 00H, '_', 00H, 'm'
	DB	00H, 'a', 00H, 'n', 00H, 'u', 00H, 'a', 00H, 'l', 00H, 'l', 00H
	DB	'y', 00H, '_', 00H, 'v', 00H, 'e', 00H, 'c', 00H, 't', 00H, 'o'
	DB	00H, 'r', 00H, '_', 00H, 'a', 00H, 'l', 00H, 'i', 00H, 'g', 00H
	DB	'n', 00H, 'e', 00H, 'd', 00H, 00H, 00H	; `string'
CONST	ENDS
;	COMDAT ??_C@_1NA@MJBOBEJL@?$AAC?$AA?3?$AA?2?$AAP?$AAr?$AAo?$AAg?$AAr?$AAa?$AAm?$AA?5?$AAF?$AAi?$AAl?$AAe@
CONST	SEGMENT
??_C@_1NA@MJBOBEJL@?$AAC?$AA?3?$AA?2?$AAP?$AAr?$AAo?$AAg?$AAr?$AAa?$AAm?$AA?5?$AAF?$AAi?$AAl?$AAe@ DB 'C'
	DB	00H, ':', 00H, '\', 00H, 'P', 00H, 'r', 00H, 'o', 00H, 'g', 00H
	DB	'r', 00H, 'a', 00H, 'm', 00H, ' ', 00H, 'F', 00H, 'i', 00H, 'l'
	DB	00H, 'e', 00H, 's', 00H, ' ', 00H, '(', 00H, 'x', 00H, '8', 00H
	DB	'6', 00H, ')', 00H, '\', 00H, 'M', 00H, 'i', 00H, 'c', 00H, 'r'
	DB	00H, 'o', 00H, 's', 00H, 'o', 00H, 'f', 00H, 't', 00H, ' ', 00H
	DB	'V', 00H, 'i', 00H, 's', 00H, 'u', 00H, 'a', 00H, 'l', 00H, ' '
	DB	00H, 'S', 00H, 't', 00H, 'u', 00H, 'd', 00H, 'i', 00H, 'o', 00H
	DB	'\', 00H, '2', 00H, '0', 00H, '1', 00H, '9', 00H, '\', 00H, 'C'
	DB	00H, 'o', 00H, 'm', 00H, 'm', 00H, 'u', 00H, 'n', 00H, 'i', 00H
	DB	't', 00H, 'y', 00H, '\', 00H, 'V', 00H, 'C', 00H, '\', 00H, 'T'
	DB	00H, 'o', 00H, 'o', 00H, 'l', 00H, 's', 00H, '\', 00H, 'M', 00H
	DB	'S', 00H, 'V', 00H, 'C', 00H, '\', 00H, '1', 00H, '4', 00H, '.'
	DB	00H, '2', 00H, '9', 00H, '.', 00H, '3', 00H, '0', 00H, '1', 00H
	DB	'3', 00H, '3', 00H, '\', 00H, 'i', 00H, 'n', 00H, 'c', 00H, 'l'
	DB	00H, 'u', 00H, 'd', 00H, 'e', 00H, '\', 00H, 'x', 00H, 'm', 00H
	DB	'e', 00H, 'm', 00H, 'o', 00H, 'r', 00H, 'y', 00H, 00H, 00H ; `string'
CONST	ENDS
;	COMDAT ??_C@_0GI@MNEMJBML@C?3?2Program?5Files?5?$CIx86?$CJ?2Microsof@
CONST	SEGMENT
??_C@_0GI@MNEMJBML@C?3?2Program?5Files?5?$CIx86?$CJ?2Microsof@ DB 'C:\Pro'
	DB	'gram Files (x86)\Microsoft Visual Studio\2019\Community\VC\To'
	DB	'ols\MSVC\14.29.30133\include\xmemory', 00H	; `string'
CONST	ENDS
;	COMDAT ??_C@_02DKCKIIND@?$CFs@
CONST	SEGMENT
??_C@_02DKCKIIND@?$CFs@ DB '%s', 00H			; `string'
CONST	ENDS
;	COMDAT ??_C@_0BB@FCMFBGOM@invalid?5argument@
CONST	SEGMENT
??_C@_0BB@FCMFBGOM@invalid?5argument@ DB 'invalid argument', 00H ; `string'
CONST	ENDS
;	COMDAT ?__LINE__Var@?0??_Adjust_manually_vector_aligned@std@@YAXAAPAXAAI@Z@4JA
_DATA	SEGMENT
?__LINE__Var@?0??_Adjust_manually_vector_aligned@std@@YAXAAPAXAAI@Z@4JA DD 099H ; `std::_Adjust_manually_vector_aligned'::`1'::__LINE__Var
_DATA	ENDS
;	COMDAT __CT??_R0?AVexception@std@@@8??0exception@std@@QAE@ABV01@@Z12
xdata$x	SEGMENT
__CT??_R0?AVexception@std@@@8??0exception@std@@QAE@ABV01@@Z12 DD 00H
	DD	FLAT:??_R0?AVexception@std@@@8
	DD	00H
	DD	0ffffffffH
	ORG $+4
	DD	0cH
	DD	FLAT:??0exception@std@@QAE@ABV01@@Z
xdata$x	ENDS
;	COMDAT ??_R0?AVexception@std@@@8
data$r	SEGMENT
??_R0?AVexception@std@@@8 DD FLAT:??_7type_info@@6B@	; std::exception `RTTI Type Descriptor'
	DD	00H
	DB	'.?AVexception@std@@', 00H
data$r	ENDS
;	COMDAT __CT??_R0?AVbad_alloc@std@@@8??0bad_alloc@std@@QAE@ABV01@@Z12
xdata$x	SEGMENT
__CT??_R0?AVbad_alloc@std@@@8??0bad_alloc@std@@QAE@ABV01@@Z12 DD 010H
	DD	FLAT:??_R0?AVbad_alloc@std@@@8
	DD	00H
	DD	0ffffffffH
	ORG $+4
	DD	0cH
	DD	FLAT:??0bad_alloc@std@@QAE@ABV01@@Z
xdata$x	ENDS
;	COMDAT ??_R0?AVbad_alloc@std@@@8
data$r	SEGMENT
??_R0?AVbad_alloc@std@@@8 DD FLAT:??_7type_info@@6B@	; std::bad_alloc `RTTI Type Descriptor'
	DD	00H
	DB	'.?AVbad_alloc@std@@', 00H
data$r	ENDS
;	COMDAT __CT??_R0?AVbad_array_new_length@std@@@8??0bad_array_new_length@std@@QAE@ABV01@@Z12
xdata$x	SEGMENT
__CT??_R0?AVbad_array_new_length@std@@@8??0bad_array_new_length@std@@QAE@ABV01@@Z12 DD 00H
	DD	FLAT:??_R0?AVbad_array_new_length@std@@@8
	DD	00H
	DD	0ffffffffH
	ORG $+4
	DD	0cH
	DD	FLAT:??0bad_array_new_length@std@@QAE@ABV01@@Z
xdata$x	ENDS
;	COMDAT ??_R0?AVbad_array_new_length@std@@@8
data$r	SEGMENT
??_R0?AVbad_array_new_length@std@@@8 DD FLAT:??_7type_info@@6B@ ; std::bad_array_new_length `RTTI Type Descriptor'
	DD	00H
	DB	'.?AVbad_array_new_length@std@@', 00H
data$r	ENDS
;	COMDAT __CTA3?AVbad_array_new_length@std@@
xdata$x	SEGMENT
__CTA3?AVbad_array_new_length@std@@ DD 03H
	DD	FLAT:__CT??_R0?AVbad_array_new_length@std@@@8??0bad_array_new_length@std@@QAE@ABV01@@Z12
	DD	FLAT:__CT??_R0?AVbad_alloc@std@@@8??0bad_alloc@std@@QAE@ABV01@@Z12
	DD	FLAT:__CT??_R0?AVexception@std@@@8??0exception@std@@QAE@ABV01@@Z12
xdata$x	ENDS
;	COMDAT __TI3?AVbad_array_new_length@std@@
xdata$x	SEGMENT
__TI3?AVbad_array_new_length@std@@ DD 00H
	DD	FLAT:??1bad_array_new_length@std@@UAE@XZ
	DD	00H
	DD	FLAT:__CTA3?AVbad_array_new_length@std@@
xdata$x	ENDS
;	COMDAT ??_C@_0BF@KINCDENJ@bad?5array?5new?5length@
CONST	SEGMENT
??_C@_0BF@KINCDENJ@bad?5array?5new?5length@ DB 'bad array new length', 00H ; `string'
CONST	ENDS
;	COMDAT ??_7bad_array_new_length@std@@6B@
CONST	SEGMENT
??_7bad_array_new_length@std@@6B@ DD FLAT:??_R4bad_array_new_length@std@@6B@ ; std::bad_array_new_length::`vftable'
	DD	FLAT:??_Ebad_array_new_length@std@@UAEPAXI@Z
	DD	FLAT:?what@exception@std@@UBEPBDXZ
CONST	ENDS
;	COMDAT ??_7bad_alloc@std@@6B@
CONST	SEGMENT
??_7bad_alloc@std@@6B@ DD FLAT:??_R4bad_alloc@std@@6B@	; std::bad_alloc::`vftable'
	DD	FLAT:??_Ebad_alloc@std@@UAEPAXI@Z
	DD	FLAT:?what@exception@std@@UBEPBDXZ
CONST	ENDS
;	COMDAT ??_C@_0BC@EOODALEL@Unknown?5exception@
CONST	SEGMENT
??_C@_0BC@EOODALEL@Unknown?5exception@ DB 'Unknown exception', 00H ; `string'
CONST	ENDS
;	COMDAT ??_7exception@std@@6B@
CONST	SEGMENT
??_7exception@std@@6B@ DD FLAT:??_R4exception@std@@6B@	; std::exception::`vftable'
	DD	FLAT:??_Eexception@std@@UAEPAXI@Z
	DD	FLAT:?what@exception@std@@UBEPBDXZ
CONST	ENDS
;	COMDAT voltbl
voltbl	SEGMENT
_volmd	DB	09H
voltbl	ENDS
;	COMDAT xdata$x
xdata$x	SEGMENT
__ehfuncinfo$??$_Deallocate_plain@V?$allocator@U_Container_proxy@std@@@std@@@std@@YAXAAV?$allocator@U_Container_proxy@std@@@0@QAU_Container_proxy@0@@Z DD 019930522H
	DD	00H
	DD	00H
	DD	2 DUP(00H)
	DD	2 DUP(00H)
	DD	00H
	DD	05H
xdata$x	ENDS
;	COMDAT voltbl
voltbl	SEGMENT
_volmd	DB	016H
	DB	023H
voltbl	ENDS
;	COMDAT voltbl
voltbl	SEGMENT
_volmd	DW	034H
	DW	040fH
voltbl	ENDS
;	COMDAT xdata$x
xdata$x	SEGMENT
__catchsym$??$_Insert_string@DU?$char_traits@D@std@@I@std@@YAAAV?$basic_ostream@DU?$char_traits@D@std@@@0@AAV10@QBDI@Z$3 DD 040H
	DD	00H
	DD	00H
	DD	FLAT:__catch$??$_Insert_string@DU?$char_traits@D@std@@I@std@@YAAAV?$basic_ostream@DU?$char_traits@D@std@@@0@AAV10@QBDI@Z$0
__tryblocktable$??$_Insert_string@DU?$char_traits@D@std@@I@std@@YAAAV?$basic_ostream@DU?$char_traits@D@std@@@0@AAV10@QBDI@Z DD 01H
	DD	01H
	DD	02H
	DD	01H
	DD	FLAT:__catchsym$??$_Insert_string@DU?$char_traits@D@std@@I@std@@YAAAV?$basic_ostream@DU?$char_traits@D@std@@@0@AAV10@QBDI@Z$3
__unwindtable$??$_Insert_string@DU?$char_traits@D@std@@I@std@@YAAAV?$basic_ostream@DU?$char_traits@D@std@@@0@AAV10@QBDI@Z DD 0ffffffffH
	DD	FLAT:__unwindfunclet$??$_Insert_string@DU?$char_traits@D@std@@I@std@@YAAAV?$basic_ostream@DU?$char_traits@D@std@@@0@AAV10@QBDI@Z$2
	DD	00H
	DD	00H
	DD	00H
	DD	00H
__ehfuncinfo$??$_Insert_string@DU?$char_traits@D@std@@I@std@@YAAAV?$basic_ostream@DU?$char_traits@D@std@@@0@AAV10@QBDI@Z DD 019930522H
	DD	03H
	DD	FLAT:__unwindtable$??$_Insert_string@DU?$char_traits@D@std@@I@std@@YAAAV?$basic_ostream@DU?$char_traits@D@std@@@0@AAV10@QBDI@Z
	DD	01H
	DD	FLAT:__tryblocktable$??$_Insert_string@DU?$char_traits@D@std@@I@std@@YAAAV?$basic_ostream@DU?$char_traits@D@std@@@0@AAV10@QBDI@Z
	DD	2 DUP(00H)
	DD	00H
	DD	01H
xdata$x	ENDS
;	COMDAT voltbl
voltbl	SEGMENT
_volmd	DB	09H
voltbl	ENDS
;	COMDAT xdata$x
xdata$x	SEGMENT
__ehfuncinfo$??$_Deallocate@$07$0A@@std@@YAXPAXI@Z DD 019930522H
	DD	00H
	DD	00H
	DD	2 DUP(00H)
	DD	2 DUP(00H)
	DD	00H
	DD	05H
xdata$x	ENDS
;	COMDAT voltbl
voltbl	SEGMENT
_volmd	DW	024H
	DW	010cH
voltbl	ENDS
;	COMDAT voltbl
voltbl	SEGMENT
_volmd	DB	09H
voltbl	ENDS
;	COMDAT xdata$x
xdata$x	SEGMENT
__ehfuncinfo$??1sentry@?$basic_ostream@DU?$char_traits@D@std@@@std@@QAE@XZ DD 019930522H
	DD	00H
	DD	00H
	DD	2 DUP(00H)
	DD	2 DUP(00H)
	DD	00H
	DD	05H
xdata$x	ENDS
;	COMDAT voltbl
voltbl	SEGMENT
_volmd	DB	016H
voltbl	ENDS
;	COMDAT xdata$x
xdata$x	SEGMENT
__unwindtable$??0sentry@?$basic_ostream@DU?$char_traits@D@std@@@std@@QAE@AAV12@@Z DD 0ffffffffH
	DD	FLAT:__unwindfunclet$??0sentry@?$basic_ostream@DU?$char_traits@D@std@@@std@@QAE@AAV12@@Z$0
__ehfuncinfo$??0sentry@?$basic_ostream@DU?$char_traits@D@std@@@std@@QAE@AAV12@@Z DD 019930522H
	DD	01H
	DD	FLAT:__unwindtable$??0sentry@?$basic_ostream@DU?$char_traits@D@std@@@std@@QAE@AAV12@@Z
	DD	2 DUP(00H)
	DD	2 DUP(00H)
	DD	00H
	DD	01H
xdata$x	ENDS
;	COMDAT voltbl
voltbl	SEGMENT
_volmd	DB	09H
voltbl	ENDS
;	COMDAT xdata$x
xdata$x	SEGMENT
__ehfuncinfo$??1_Sentry_base@?$basic_ostream@DU?$char_traits@D@std@@@std@@QAE@XZ DD 019930522H
	DD	00H
	DD	00H
	DD	2 DUP(00H)
	DD	2 DUP(00H)
	DD	00H
	DD	05H
xdata$x	ENDS
;	COMDAT voltbl
voltbl	SEGMENT
_volmd	DB	016H
	DB	023H
voltbl	ENDS
;	COMDAT voltbl
voltbl	SEGMENT
_volmd	DW	034H
	DW	0477H
voltbl	ENDS
;	COMDAT xdata$x
xdata$x	SEGMENT
__catchsym$??$?6U?$char_traits@D@std@@@std@@YAAAV?$basic_ostream@DU?$char_traits@D@std@@@0@AAV10@PBD@Z$3 DD 040H
	DD	00H
	DD	00H
	DD	FLAT:__catch$??$?6U?$char_traits@D@std@@@std@@YAAAV?$basic_ostream@DU?$char_traits@D@std@@@0@AAV10@PBD@Z$0
__tryblocktable$??$?6U?$char_traits@D@std@@@std@@YAAAV?$basic_ostream@DU?$char_traits@D@std@@@0@AAV10@PBD@Z DD 01H
	DD	01H
	DD	02H
	DD	01H
	DD	FLAT:__catchsym$??$?6U?$char_traits@D@std@@@std@@YAAAV?$basic_ostream@DU?$char_traits@D@std@@@0@AAV10@PBD@Z$3
__unwindtable$??$?6U?$char_traits@D@std@@@std@@YAAAV?$basic_ostream@DU?$char_traits@D@std@@@0@AAV10@PBD@Z DD 0ffffffffH
	DD	FLAT:__unwindfunclet$??$?6U?$char_traits@D@std@@@std@@YAAAV?$basic_ostream@DU?$char_traits@D@std@@@0@AAV10@PBD@Z$2
	DD	00H
	DD	00H
	DD	00H
	DD	00H
__ehfuncinfo$??$?6U?$char_traits@D@std@@@std@@YAAAV?$basic_ostream@DU?$char_traits@D@std@@@0@AAV10@PBD@Z DD 019930522H
	DD	03H
	DD	FLAT:__unwindtable$??$?6U?$char_traits@D@std@@@std@@YAAAV?$basic_ostream@DU?$char_traits@D@std@@@0@AAV10@PBD@Z
	DD	01H
	DD	FLAT:__tryblocktable$??$?6U?$char_traits@D@std@@@std@@YAAAV?$basic_ostream@DU?$char_traits@D@std@@@0@AAV10@PBD@Z
	DD	2 DUP(00H)
	DD	00H
	DD	01H
xdata$x	ENDS
;	COMDAT voltbl
voltbl	SEGMENT
_volmd	DW	025H
	DW	038bH
voltbl	ENDS
;	COMDAT voltbl
voltbl	SEGMENT
_volmd	DB	09H
voltbl	ENDS
;	COMDAT xdata$x
xdata$x	SEGMENT
__ehfuncinfo$?_Tidy_deallocate@?$basic_string@DU?$char_traits@D@std@@V?$allocator@D@2@@std@@AAEXXZ DD 019930522H
	DD	00H
	DD	00H
	DD	2 DUP(00H)
	DD	2 DUP(00H)
	DD	00H
	DD	05H
xdata$x	ENDS
;	COMDAT voltbl
voltbl	SEGMENT
_volmd	DB	022H
	DB	090H
voltbl	ENDS
;	COMDAT voltbl
voltbl	SEGMENT
_volmd	DB	024H
	DB	0adH
voltbl	ENDS
;	COMDAT voltbl
voltbl	SEGMENT
_volmd	DB	024H
	DB	090H
voltbl	ENDS
;	COMDAT voltbl
voltbl	SEGMENT
_volmd	DB	09H
voltbl	ENDS
;	COMDAT xdata$x
xdata$x	SEGMENT
__ehfuncinfo$??0?$basic_string@DU?$char_traits@D@std@@V?$allocator@D@2@@std@@QAE@XZ DD 019930522H
	DD	00H
	DD	00H
	DD	2 DUP(00H)
	DD	2 DUP(00H)
	DD	00H
	DD	05H
xdata$x	ENDS
;	COMDAT voltbl
voltbl	SEGMENT
_volmd	DB	024H
	DB	076H
voltbl	ENDS
; Function compile flags: /Odt
;	COMDAT __JustMyCode_Default
_TEXT	SEGMENT
__JustMyCode_Default PROC				; COMDAT
  00000	55		 push	 ebp
  00001	8b ec		 mov	 ebp, esp
  00003	5d		 pop	 ebp
  00004	c3		 ret	 0
__JustMyCode_Default ENDP
_TEXT	ENDS
; Function compile flags: /Odtp /RTCsu /ZI
; File C:\Program Files (x86)\Microsoft Visual Studio\2019\Community\VC\Tools\MSVC\14.29.30133\include\xmemory
;	COMDAT ?deallocate@?$_Default_allocator_traits@V?$allocator@U_Container_proxy@std@@@std@@@std@@SAXAAV?$allocator@U_Container_proxy@std@@@2@QAU_Container_proxy@2@I@Z
_TEXT	SEGMENT
__Al$ = 8						; size = 4
__Ptr$ = 12						; size = 4
__Count$ = 16						; size = 4
?deallocate@?$_Default_allocator_traits@V?$allocator@U_Container_proxy@std@@@std@@@std@@SAXAAV?$allocator@U_Container_proxy@std@@@2@QAU_Container_proxy@2@I@Z PROC ; std::_Default_allocator_traits<std::allocator<std::_Container_proxy> >::deallocate, COMDAT

; 693  :     static _CONSTEXPR20_DYNALLOC void deallocate(_Alloc& _Al, const pointer _Ptr, const size_type _Count) {

  00000	55		 push	 ebp
  00001	8b ec		 mov	 ebp, esp
  00003	81 ec c0 00 00
	00		 sub	 esp, 192		; 000000c0H
  00009	53		 push	 ebx
  0000a	56		 push	 esi
  0000b	57		 push	 edi
  0000c	8b fd		 mov	 edi, ebp
  0000e	33 c9		 xor	 ecx, ecx
  00010	b8 cc cc cc cc	 mov	 eax, -858993460		; ccccccccH
  00015	f3 ab		 rep stosd
  00017	b9 00 00 00 00	 mov	 ecx, OFFSET __79D216CD_xmemory
  0001c	e8 00 00 00 00	 call	 @__CheckForDebuggerJustMyCode@4

; 694  :         // no overflow check on the following multiply; we assume _Allocate did that check
; 695  : #ifdef __cpp_lib_constexpr_dynamic_alloc // TRANSITION, GH-1532
; 696  :         if (_STD is_constant_evaluated()) {
; 697  :             _Al.deallocate(_Ptr, _Count);
; 698  :         } else
; 699  : #endif // __cpp_lib_constexpr_dynamic_alloc
; 700  :         {
; 701  :             (void) _Al;
; 702  :             _Deallocate<_New_alignof<value_type>>(_Ptr, sizeof(value_type) * _Count);

  00021	8b 45 10	 mov	 eax, DWORD PTR __Count$[ebp]
  00024	c1 e0 03	 shl	 eax, 3
  00027	50		 push	 eax
  00028	8b 4d 0c	 mov	 ecx, DWORD PTR __Ptr$[ebp]
  0002b	51		 push	 ecx
  0002c	e8 00 00 00 00	 call	 ??$_Deallocate@$07$0A@@std@@YAXPAXI@Z ; std::_Deallocate<8,0>
  00031	83 c4 08	 add	 esp, 8

; 703  :         }
; 704  :     }

  00034	5f		 pop	 edi
  00035	5e		 pop	 esi
  00036	5b		 pop	 ebx
  00037	81 c4 c0 00 00
	00		 add	 esp, 192		; 000000c0H
  0003d	3b ec		 cmp	 ebp, esp
  0003f	e8 00 00 00 00	 call	 __RTC_CheckEsp
  00044	8b e5		 mov	 esp, ebp
  00046	5d		 pop	 ebp
  00047	c3		 ret	 0
?deallocate@?$_Default_allocator_traits@V?$allocator@U_Container_proxy@std@@@std@@@std@@SAXAAV?$allocator@U_Container_proxy@std@@@2@QAU_Container_proxy@2@I@Z ENDP ; std::_Default_allocator_traits<std::allocator<std::_Container_proxy> >::deallocate
_TEXT	ENDS
; Function compile flags: /Odtp /RTCsu /ZI
; File C:\Program Files (x86)\Microsoft Visual Studio\2019\Community\VC\Tools\MSVC\14.29.30133\include\xmemory
;	COMDAT ??$_Allocate_manually_vector_aligned@U_Default_allocate_traits@std@@@std@@YAPAXI@Z
_TEXT	SEGMENT
__Ptr$ = -32						; size = 4
__Ptr_container$ = -20					; size = 4
__Block_size$ = -8					; size = 4
__Bytes$ = 8						; size = 4
??$_Allocate_manually_vector_aligned@U_Default_allocate_traits@std@@@std@@YAPAXI@Z PROC ; std::_Allocate_manually_vector_aligned<std::_Default_allocate_traits>, COMDAT

; 134  : __declspec(allocator) void* _Allocate_manually_vector_aligned(const size_t _Bytes) {

  00000	55		 push	 ebp
  00001	8b ec		 mov	 ebp, esp
  00003	81 ec e4 00 00
	00		 sub	 esp, 228		; 000000e4H
  00009	53		 push	 ebx
  0000a	56		 push	 esi
  0000b	57		 push	 edi
  0000c	8d 7d dc	 lea	 edi, DWORD PTR [ebp-36]
  0000f	b9 09 00 00 00	 mov	 ecx, 9
  00014	b8 cc cc cc cc	 mov	 eax, -858993460		; ccccccccH
  00019	f3 ab		 rep stosd
  0001b	b9 00 00 00 00	 mov	 ecx, OFFSET __79D216CD_xmemory
  00020	e8 00 00 00 00	 call	 @__CheckForDebuggerJustMyCode@4

; 135  :     // allocate _Bytes manually aligned to at least _Big_allocation_alignment
; 136  :     const size_t _Block_size = _Non_user_size + _Bytes;

  00025	8b 45 08	 mov	 eax, DWORD PTR __Bytes$[ebp]
  00028	83 c0 27	 add	 eax, 39			; 00000027H
  0002b	89 45 f8	 mov	 DWORD PTR __Block_size$[ebp], eax

; 137  :     if (_Block_size <= _Bytes) {

  0002e	8b 45 f8	 mov	 eax, DWORD PTR __Block_size$[ebp]
  00031	3b 45 08	 cmp	 eax, DWORD PTR __Bytes$[ebp]
  00034	77 05		 ja	 SHORT $LN8@Allocate_m

; 138  :         _Throw_bad_array_new_length(); // add overflow

  00036	e8 00 00 00 00	 call	 ?_Throw_bad_array_new_length@std@@YAXXZ ; std::_Throw_bad_array_new_length
$LN8@Allocate_m:

; 139  :     }
; 140  : 
; 141  :     const uintptr_t _Ptr_container = reinterpret_cast<uintptr_t>(_Traits::_Allocate(_Block_size));

  0003b	8b 45 f8	 mov	 eax, DWORD PTR __Block_size$[ebp]
  0003e	50		 push	 eax
  0003f	e8 00 00 00 00	 call	 ?_Allocate@_Default_allocate_traits@std@@SAPAXI@Z ; std::_Default_allocate_traits::_Allocate
  00044	83 c4 04	 add	 esp, 4
  00047	89 45 ec	 mov	 DWORD PTR __Ptr_container$[ebp], eax
$LN4@Allocate_m:

; 142  :     _STL_VERIFY(_Ptr_container != 0, "invalid argument"); // validate even in release since we're doing p[-1]

  0004a	83 7d ec 00	 cmp	 DWORD PTR __Ptr_container$[ebp], 0
  0004e	74 02		 je	 SHORT $LN7@Allocate_m
  00050	eb 5c		 jmp	 SHORT $LN2@Allocate_m
$LN7@Allocate_m:
  00052	8b f4		 mov	 esi, esp
  00054	68 00 00 00 00	 push	 OFFSET ??_C@_0BB@FCMFBGOM@invalid?5argument@
  00059	68 00 00 00 00	 push	 OFFSET ??_C@_02DKCKIIND@?$CFs@
  0005e	6a 00		 push	 0
  00060	68 8e 00 00 00	 push	 142			; 0000008eH
  00065	68 00 00 00 00	 push	 OFFSET ??_C@_0GI@MNEMJBML@C?3?2Program?5Files?5?$CIx86?$CJ?2Microsof@
  0006a	6a 02		 push	 2
  0006c	ff 15 00 00 00
	00		 call	 DWORD PTR __imp___CrtDbgReport
  00072	83 c4 18	 add	 esp, 24			; 00000018H
  00075	3b f4		 cmp	 esi, esp
  00077	e8 00 00 00 00	 call	 __RTC_CheckEsp
  0007c	83 f8 01	 cmp	 eax, 1
  0007f	75 01		 jne	 SHORT $LN12@Allocate_m
  00081	cc		 int	 3
$LN12@Allocate_m:
  00082	8b f4		 mov	 esi, esp
  00084	6a 00		 push	 0
  00086	68 8e 00 00 00	 push	 142			; 0000008eH
  0008b	68 00 00 00 00	 push	 OFFSET ??_C@_1NA@MJBOBEJL@?$AAC?$AA?3?$AA?2?$AAP?$AAr?$AAo?$AAg?$AAr?$AAa?$AAm?$AA?5?$AAF?$AAi?$AAl?$AAe@
  00090	68 00 00 00 00	 push	 OFFSET ??_C@_1EO@GFNCMDLA@?$AAs?$AAt?$AAd?$AA?3?$AA?3?$AA_?$AAA?$AAl?$AAl?$AAo?$AAc?$AAa?$AAt?$AAe?$AA_@
  00095	68 00 00 00 00	 push	 OFFSET ??_C@_1CG@JNLFBNGN@?$AA?$CC?$AAi?$AAn?$AAv?$AAa?$AAl?$AAi?$AAd?$AA?5?$AAa?$AAr?$AAg?$AAu?$AAm?$AAe@
  0009a	ff 15 00 00 00
	00		 call	 DWORD PTR __imp___invalid_parameter
  000a0	83 c4 14	 add	 esp, 20			; 00000014H
  000a3	3b f4		 cmp	 esi, esp
  000a5	e8 00 00 00 00	 call	 __RTC_CheckEsp
  000aa	33 c0		 xor	 eax, eax
  000ac	75 a4		 jne	 SHORT $LN7@Allocate_m
$LN2@Allocate_m:
  000ae	33 c0		 xor	 eax, eax
  000b0	75 98		 jne	 SHORT $LN4@Allocate_m

; 143  :     void* const _Ptr = reinterpret_cast<void*>((_Ptr_container + _Non_user_size) & ~(_Big_allocation_alignment - 1));

  000b2	8b 45 ec	 mov	 eax, DWORD PTR __Ptr_container$[ebp]
  000b5	83 c0 27	 add	 eax, 39			; 00000027H
  000b8	83 e0 e0	 and	 eax, -32		; ffffffe0H
  000bb	89 45 e0	 mov	 DWORD PTR __Ptr$[ebp], eax

; 144  :     static_cast<uintptr_t*>(_Ptr)[-1] = _Ptr_container;

  000be	b8 04 00 00 00	 mov	 eax, 4
  000c3	6b c8 ff	 imul	 ecx, eax, -1
  000c6	8b 55 e0	 mov	 edx, DWORD PTR __Ptr$[ebp]
  000c9	8b 45 ec	 mov	 eax, DWORD PTR __Ptr_container$[ebp]
  000cc	89 04 0a	 mov	 DWORD PTR [edx+ecx], eax

; 145  : 
; 146  : #ifdef _DEBUG
; 147  :     static_cast<uintptr_t*>(_Ptr)[-2] = _Big_allocation_sentinel;

  000cf	b8 04 00 00 00	 mov	 eax, 4
  000d4	6b c8 fe	 imul	 ecx, eax, -2
  000d7	8b 55 e0	 mov	 edx, DWORD PTR __Ptr$[ebp]
  000da	c7 04 0a fa fa
	fa fa		 mov	 DWORD PTR [edx+ecx], -84215046 ; fafafafaH

; 148  : #endif // _DEBUG
; 149  :     return _Ptr;

  000e1	8b 45 e0	 mov	 eax, DWORD PTR __Ptr$[ebp]
$LN11@Allocate_m:

; 150  : }

  000e4	5f		 pop	 edi
  000e5	5e		 pop	 esi
  000e6	5b		 pop	 ebx
  000e7	81 c4 e4 00 00
	00		 add	 esp, 228		; 000000e4H
  000ed	3b ec		 cmp	 ebp, esp
  000ef	e8 00 00 00 00	 call	 __RTC_CheckEsp
  000f4	8b e5		 mov	 esp, ebp
  000f6	5d		 pop	 ebp
  000f7	c3		 ret	 0
??$_Allocate_manually_vector_aligned@U_Default_allocate_traits@std@@@std@@YAPAXI@Z ENDP ; std::_Allocate_manually_vector_aligned<std::_Default_allocate_traits>
_TEXT	ENDS
; Function compile flags: /Odtp /RTCsu /ZI
; File C:\Program Files (x86)\Microsoft Visual Studio\2019\Community\VC\Tools\MSVC\14.29.30133\include\type_traits
;	COMDAT ??$forward@ABQAD@std@@YAABQADABQAD@Z
_TEXT	SEGMENT
__Arg$ = 8						; size = 4
??$forward@ABQAD@std@@YAABQADABQAD@Z PROC		; std::forward<char * const &>, COMDAT

; 1443 :     remove_reference_t<_Ty>& _Arg) noexcept { // forward an lvalue as either an lvalue or an rvalue

  00000	55		 push	 ebp
  00001	8b ec		 mov	 ebp, esp
  00003	81 ec c0 00 00
	00		 sub	 esp, 192		; 000000c0H
  00009	53		 push	 ebx
  0000a	56		 push	 esi
  0000b	57		 push	 edi
  0000c	8b fd		 mov	 edi, ebp
  0000e	33 c9		 xor	 ecx, ecx
  00010	b8 cc cc cc cc	 mov	 eax, -858993460		; ccccccccH
  00015	f3 ab		 rep stosd
  00017	b9 00 00 00 00	 mov	 ecx, OFFSET __589FA321_type_traits
  0001c	e8 00 00 00 00	 call	 @__CheckForDebuggerJustMyCode@4

; 1444 :     return static_cast<_Ty&&>(_Arg);

  00021	8b 45 08	 mov	 eax, DWORD PTR __Arg$[ebp]

; 1445 : }

  00024	5f		 pop	 edi
  00025	5e		 pop	 esi
  00026	5b		 pop	 ebx
  00027	81 c4 c0 00 00
	00		 add	 esp, 192		; 000000c0H
  0002d	3b ec		 cmp	 ebp, esp
  0002f	e8 00 00 00 00	 call	 __RTC_CheckEsp
  00034	8b e5		 mov	 esp, ebp
  00036	5d		 pop	 ebp
  00037	c3		 ret	 0
??$forward@ABQAD@std@@YAABQADABQAD@Z ENDP		; std::forward<char * const &>
_TEXT	ENDS
; Function compile flags: /Odtp /RTCsu /ZI
; File C:\Program Files (x86)\Microsoft Visual Studio\2019\Community\VC\Tools\MSVC\14.29.30133\include\xutility
;	COMDAT ??$_Voidify_iter@PAPAD@std@@YAPAXPAPAD@Z
_TEXT	SEGMENT
__It$ = 8						; size = 4
??$_Voidify_iter@PAPAD@std@@YAPAXPAPAD@Z PROC		; std::_Voidify_iter<char * *>, COMDAT

; 130  : _NODISCARD constexpr void* _Voidify_iter(_Iter _It) noexcept {

  00000	55		 push	 ebp
  00001	8b ec		 mov	 ebp, esp
  00003	81 ec c0 00 00
	00		 sub	 esp, 192		; 000000c0H
  00009	53		 push	 ebx
  0000a	56		 push	 esi
  0000b	57		 push	 edi
  0000c	8b fd		 mov	 edi, ebp
  0000e	33 c9		 xor	 ecx, ecx
  00010	b8 cc cc cc cc	 mov	 eax, -858993460		; ccccccccH
  00015	f3 ab		 rep stosd
  00017	b9 00 00 00 00	 mov	 ecx, OFFSET __12269DE6_xutility
  0001c	e8 00 00 00 00	 call	 @__CheckForDebuggerJustMyCode@4

; 131  :     if constexpr (is_pointer_v<_Iter>) {
; 132  :         return const_cast<void*>(static_cast<const volatile void*>(_It));

  00021	8b 45 08	 mov	 eax, DWORD PTR __It$[ebp]

; 133  :     } else {
; 134  :         return const_cast<void*>(static_cast<const volatile void*>(_STD addressof(*_It)));
; 135  :     }
; 136  : }

  00024	5f		 pop	 edi
  00025	5e		 pop	 esi
  00026	5b		 pop	 ebx
  00027	81 c4 c0 00 00
	00		 add	 esp, 192		; 000000c0H
  0002d	3b ec		 cmp	 ebp, esp
  0002f	e8 00 00 00 00	 call	 __RTC_CheckEsp
  00034	8b e5		 mov	 esp, ebp
  00036	5d		 pop	 ebp
  00037	c3		 ret	 0
??$_Voidify_iter@PAPAD@std@@YAPAXPAPAD@Z ENDP		; std::_Voidify_iter<char * *>
_TEXT	ENDS
; Function compile flags: /Odtp /RTCsu /ZI
; File C:\Program Files (x86)\Microsoft Visual Studio\2019\Community\VC\Tools\MSVC\14.29.30133\include\xstddef
;	COMDAT ??$addressof@PAD@std@@YAPAPADAAPAD@Z
_TEXT	SEGMENT
__Val$ = 8						; size = 4
??$addressof@PAD@std@@YAPAPADAAPAD@Z PROC		; std::addressof<char *>, COMDAT

; 274  : _NODISCARD constexpr _Ty* addressof(_Ty& _Val) noexcept {

  00000	55		 push	 ebp
  00001	8b ec		 mov	 ebp, esp
  00003	81 ec c0 00 00
	00		 sub	 esp, 192		; 000000c0H
  00009	53		 push	 ebx
  0000a	56		 push	 esi
  0000b	57		 push	 edi
  0000c	8b fd		 mov	 edi, ebp
  0000e	33 c9		 xor	 ecx, ecx
  00010	b8 cc cc cc cc	 mov	 eax, -858993460		; ccccccccH
  00015	f3 ab		 rep stosd
  00017	b9 00 00 00 00	 mov	 ecx, OFFSET __E458E21C_xstddef
  0001c	e8 00 00 00 00	 call	 @__CheckForDebuggerJustMyCode@4

; 275  :     return __builtin_addressof(_Val);

  00021	8b 45 08	 mov	 eax, DWORD PTR __Val$[ebp]

; 276  : }

  00024	5f		 pop	 edi
  00025	5e		 pop	 esi
  00026	5b		 pop	 ebx
  00027	81 c4 c0 00 00
	00		 add	 esp, 192		; 000000c0H
  0002d	3b ec		 cmp	 ebp, esp
  0002f	e8 00 00 00 00	 call	 __RTC_CheckEsp
  00034	8b e5		 mov	 esp, ebp
  00036	5d		 pop	 ebp
  00037	c3		 ret	 0
??$addressof@PAD@std@@YAPAPADAAPAD@Z ENDP		; std::addressof<char *>
_TEXT	ENDS
; Function compile flags: /Odtp /RTCsu /ZI
; File C:\Program Files (x86)\Microsoft Visual Studio\2019\Community\VC\Tools\MSVC\14.29.30133\include\xmemory
;	COMDAT ??$_Deallocate_plain@V?$allocator@U_Container_proxy@std@@@std@@@std@@YAXAAV?$allocator@U_Container_proxy@std@@@0@QAU_Container_proxy@0@@Z
_TEXT	SEGMENT
__$EHRec$ = -12						; size = 12
__Al$ = 8						; size = 4
__Ptr$ = 12						; size = 4
??$_Deallocate_plain@V?$allocator@U_Container_proxy@std@@@std@@@std@@YAXAAV?$allocator@U_Container_proxy@std@@@0@QAU_Container_proxy@0@@Z PROC ; std::_Deallocate_plain<std::allocator<std::_Container_proxy> >, COMDAT

; 985  : _CONSTEXPR20_DYNALLOC void _Deallocate_plain(_Alloc& _Al, typename _Alloc::value_type* const _Ptr) noexcept {

  00000	55		 push	 ebp
  00001	8b ec		 mov	 ebp, esp
  00003	6a ff		 push	 -1
  00005	68 00 00 00 00	 push	 __ehhandler$??$_Deallocate_plain@V?$allocator@U_Container_proxy@std@@@std@@@std@@YAXAAV?$allocator@U_Container_proxy@std@@@0@QAU_Container_proxy@0@@Z
  0000a	64 a1 00 00 00
	00		 mov	 eax, DWORD PTR fs:0
  00010	50		 push	 eax
  00011	81 ec c0 00 00
	00		 sub	 esp, 192		; 000000c0H
  00017	53		 push	 ebx
  00018	56		 push	 esi
  00019	57		 push	 edi
  0001a	8d 7d f4	 lea	 edi, DWORD PTR [ebp-12]
  0001d	33 c9		 xor	 ecx, ecx
  0001f	b8 cc cc cc cc	 mov	 eax, -858993460		; ccccccccH
  00024	f3 ab		 rep stosd
  00026	a1 00 00 00 00	 mov	 eax, DWORD PTR ___security_cookie
  0002b	33 c5		 xor	 eax, ebp
  0002d	50		 push	 eax
  0002e	8d 45 f4	 lea	 eax, DWORD PTR __$EHRec$[ebp]
  00031	64 a3 00 00 00
	00		 mov	 DWORD PTR fs:0, eax
  00037	b9 00 00 00 00	 mov	 ecx, OFFSET __79D216CD_xmemory
  0003c	e8 00 00 00 00	 call	 @__CheckForDebuggerJustMyCode@4

; 986  :     // deallocate a plain pointer using an allocator
; 987  :     using _Alloc_traits = allocator_traits<_Alloc>;
; 988  :     if constexpr (is_same_v<_Alloc_ptr_t<_Alloc>, typename _Alloc::value_type*>) {
; 989  :         _Alloc_traits::deallocate(_Al, _Ptr, 1);

  00041	6a 01		 push	 1
  00043	8b 45 0c	 mov	 eax, DWORD PTR __Ptr$[ebp]
  00046	50		 push	 eax
  00047	8b 4d 08	 mov	 ecx, DWORD PTR __Al$[ebp]
  0004a	51		 push	 ecx
  0004b	e8 00 00 00 00	 call	 ?deallocate@?$_Default_allocator_traits@V?$allocator@U_Container_proxy@std@@@std@@@std@@SAXAAV?$allocator@U_Container_proxy@std@@@2@QAU_Container_proxy@2@I@Z ; std::_Default_allocator_traits<std::allocator<std::_Container_proxy> >::deallocate
  00050	83 c4 0c	 add	 esp, 12			; 0000000cH

; 990  :     } else {
; 991  :         using _Ptr_traits = pointer_traits<_Alloc_ptr_t<_Alloc>>;
; 992  :         _Alloc_traits::deallocate(_Al, _Ptr_traits::pointer_to(*_Ptr), 1);
; 993  :     }
; 994  : }

  00053	8b 4d f4	 mov	 ecx, DWORD PTR __$EHRec$[ebp]
  00056	64 89 0d 00 00
	00 00		 mov	 DWORD PTR fs:0, ecx
  0005d	59		 pop	 ecx
  0005e	5f		 pop	 edi
  0005f	5e		 pop	 esi
  00060	5b		 pop	 ebx
  00061	81 c4 cc 00 00
	00		 add	 esp, 204		; 000000ccH
  00067	3b ec		 cmp	 ebp, esp
  00069	e8 00 00 00 00	 call	 __RTC_CheckEsp
  0006e	8b e5		 mov	 esp, ebp
  00070	5d		 pop	 ebp
  00071	c3		 ret	 0
  00072	cc		 int	 3
  00073	cc		 int	 3
  00074	cc		 int	 3
  00075	cc		 int	 3
  00076	cc		 int	 3
_TEXT	ENDS
;	COMDAT text$x
text$x	SEGMENT
__ehhandler$??$_Deallocate_plain@V?$allocator@U_Container_proxy@std@@@std@@@std@@YAXAAV?$allocator@U_Container_proxy@std@@@0@QAU_Container_proxy@0@@Z:
  00000	90		 npad	 1
  00001	90		 npad	 1
  00002	8b 54 24 08	 mov	 edx, DWORD PTR [esp+8]
  00006	8d 42 0c	 lea	 eax, DWORD PTR [edx+12]
  00009	8b 8a 30 ff ff
	ff		 mov	 ecx, DWORD PTR [edx-208]
  0000f	33 c8		 xor	 ecx, eax
  00011	e8 00 00 00 00	 call	 @__security_check_cookie@4
  00016	b8 00 00 00 00	 mov	 eax, OFFSET __ehfuncinfo$??$_Deallocate_plain@V?$allocator@U_Container_proxy@std@@@std@@@std@@YAXAAV?$allocator@U_Container_proxy@std@@@0@QAU_Container_proxy@0@@Z
  0001b	e9 00 00 00 00	 jmp	 ___CxxFrameHandler3
text$x	ENDS
??$_Deallocate_plain@V?$allocator@U_Container_proxy@std@@@std@@@std@@YAXAAV?$allocator@U_Container_proxy@std@@@0@QAU_Container_proxy@0@@Z ENDP ; std::_Deallocate_plain<std::allocator<std::_Container_proxy> >
; Function compile flags: /Odtp /RTCsu /ZI
; File C:\Program Files (x86)\Microsoft Visual Studio\2019\Community\VC\Tools\MSVC\14.29.30133\include\xstring
;	COMDAT ??$_Insert_string@DU?$char_traits@D@std@@I@std@@YAAAV?$basic_ostream@DU?$char_traits@D@std@@@0@AAV10@QBDI@Z
_TEXT	SEGMENT
tv405 = -332						; size = 8
tv290 = -324						; size = 4
tv287 = -324						; size = 8
tv285 = -324						; size = 4
tv324 = -320						; size = 8
tv289 = -320						; size = 4
tv284 = -320						; size = 4
tv286 = -316						; size = 4
tv135 = -316						; size = 4
tv288 = -313						; size = 1
tv283 = -313						; size = 1
$T2 = -308						; size = 4
$T3 = -296						; size = 4
$T4 = -284						; size = 4
$T5 = -272						; size = 4
$T6 = -260						; size = 4
__Ok$ = -56						; size = 8
__Pad$ = -40						; size = 4
__State$ = -28						; size = 4
__$ArrayPad$ = -20					; size = 4
__$EHRec$ = -16						; size = 16
__Ostr$ = 8						; size = 4
__Data$ = 12						; size = 4
__Size$ = 16						; size = 4
??$_Insert_string@DU?$char_traits@D@std@@I@std@@YAAAV?$basic_ostream@DU?$char_traits@D@std@@@0@AAV10@QBDI@Z PROC ; std::_Insert_string<char,std::char_traits<char>,unsigned int>, COMDAT

; 501  :     basic_ostream<_Elem, _Traits>& _Ostr, const _Elem* const _Data, const _SizeT _Size) {

  00000	55		 push	 ebp
  00001	8b ec		 mov	 ebp, esp
  00003	6a ff		 push	 -1
  00005	68 00 00 00 00	 push	 __ehhandler$??$_Insert_string@DU?$char_traits@D@std@@I@std@@YAAAV?$basic_ostream@DU?$char_traits@D@std@@@0@AAV10@QBDI@Z
  0000a	64 a1 00 00 00
	00		 mov	 eax, DWORD PTR fs:0
  00010	50		 push	 eax
  00011	51		 push	 ecx
  00012	81 ec 3c 01 00
	00		 sub	 esp, 316		; 0000013cH
  00018	53		 push	 ebx
  00019	56		 push	 esi
  0001a	57		 push	 edi
  0001b	8d bd 74 ff ff
	ff		 lea	 edi, DWORD PTR [ebp-140]
  00021	b9 1f 00 00 00	 mov	 ecx, 31			; 0000001fH
  00026	b8 cc cc cc cc	 mov	 eax, -858993460		; ccccccccH
  0002b	f3 ab		 rep stosd
  0002d	a1 00 00 00 00	 mov	 eax, DWORD PTR ___security_cookie
  00032	33 c5		 xor	 eax, ebp
  00034	89 45 ec	 mov	 DWORD PTR __$ArrayPad$[ebp], eax
  00037	50		 push	 eax
  00038	8d 45 f4	 lea	 eax, DWORD PTR __$EHRec$[ebp+4]
  0003b	64 a3 00 00 00
	00		 mov	 DWORD PTR fs:0, eax
  00041	89 65 f0	 mov	 DWORD PTR __$EHRec$[ebp], esp
  00044	b9 00 00 00 00	 mov	 ecx, OFFSET __0D019051_xstring
  00049	e8 00 00 00 00	 call	 @__CheckForDebuggerJustMyCode@4

; 502  :     // insert a character-type sequence into _Ostr as if through a basic_string copy
; 503  :     using _Ostr_t                    = basic_ostream<_Elem, _Traits>;
; 504  :     typename _Ostr_t::iostate _State = _Ostr_t::goodbit;

  0004e	c7 45 e4 00 00
	00 00		 mov	 DWORD PTR __State$[ebp], 0

; 505  : 
; 506  :     _SizeT _Pad;
; 507  :     if (_Ostr.width() <= 0 || static_cast<_SizeT>(_Ostr.width()) <= _Size) {

  00055	8b 45 08	 mov	 eax, DWORD PTR __Ostr$[ebp]
  00058	8b 08		 mov	 ecx, DWORD PTR [eax]
  0005a	8b 55 08	 mov	 edx, DWORD PTR __Ostr$[ebp]
  0005d	03 51 04	 add	 edx, DWORD PTR [ecx+4]
  00060	8b f4		 mov	 esi, esp
  00062	8b ca		 mov	 ecx, edx
  00064	ff 15 00 00 00
	00		 call	 DWORD PTR __imp_?width@ios_base@std@@QBE_JXZ
  0006a	3b f4		 cmp	 esi, esp
  0006c	e8 00 00 00 00	 call	 __RTC_CheckEsp
  00071	89 85 c0 fe ff
	ff		 mov	 DWORD PTR tv324[ebp], eax
  00077	89 95 c4 fe ff
	ff		 mov	 DWORD PTR tv324[ebp+4], edx
  0007d	83 bd c4 fe ff
	ff 00		 cmp	 DWORD PTR tv324[ebp+4], 0
  00084	7c 2c		 jl	 SHORT $LN10@Insert_str
  00086	7f 09		 jg	 SHORT $LN25@Insert_str
  00088	83 bd c0 fe ff
	ff 00		 cmp	 DWORD PTR tv324[ebp], 0
  0008f	76 21		 jbe	 SHORT $LN10@Insert_str
$LN25@Insert_str:
  00091	8b 45 08	 mov	 eax, DWORD PTR __Ostr$[ebp]
  00094	8b 08		 mov	 ecx, DWORD PTR [eax]
  00096	8b 55 08	 mov	 edx, DWORD PTR __Ostr$[ebp]
  00099	03 51 04	 add	 edx, DWORD PTR [ecx+4]
  0009c	8b f4		 mov	 esi, esp
  0009e	8b ca		 mov	 ecx, edx
  000a0	ff 15 00 00 00
	00		 call	 DWORD PTR __imp_?width@ios_base@std@@QBE_JXZ
  000a6	3b f4		 cmp	 esi, esp
  000a8	e8 00 00 00 00	 call	 __RTC_CheckEsp
  000ad	3b 45 10	 cmp	 eax, DWORD PTR __Size$[ebp]
  000b0	77 09		 ja	 SHORT $LN8@Insert_str
$LN10@Insert_str:

; 508  :         _Pad = 0;

  000b2	c7 45 d8 00 00
	00 00		 mov	 DWORD PTR __Pad$[ebp], 0

; 509  :     } else {

  000b9	eb 22		 jmp	 SHORT $LN9@Insert_str
$LN8@Insert_str:

; 510  :         _Pad = static_cast<_SizeT>(_Ostr.width()) - _Size;

  000bb	8b 45 08	 mov	 eax, DWORD PTR __Ostr$[ebp]
  000be	8b 08		 mov	 ecx, DWORD PTR [eax]
  000c0	8b 55 08	 mov	 edx, DWORD PTR __Ostr$[ebp]
  000c3	03 51 04	 add	 edx, DWORD PTR [ecx+4]
  000c6	8b f4		 mov	 esi, esp
  000c8	8b ca		 mov	 ecx, edx
  000ca	ff 15 00 00 00
	00		 call	 DWORD PTR __imp_?width@ios_base@std@@QBE_JXZ
  000d0	3b f4		 cmp	 esi, esp
  000d2	e8 00 00 00 00	 call	 __RTC_CheckEsp
  000d7	2b 45 10	 sub	 eax, DWORD PTR __Size$[ebp]
  000da	89 45 d8	 mov	 DWORD PTR __Pad$[ebp], eax
$LN9@Insert_str:

; 511  :     }
; 512  : 
; 513  :     const typename _Ostr_t::sentry _Ok(_Ostr);

  000dd	8b 45 08	 mov	 eax, DWORD PTR __Ostr$[ebp]
  000e0	50		 push	 eax
  000e1	8d 4d c8	 lea	 ecx, DWORD PTR __Ok$[ebp]
  000e4	e8 00 00 00 00	 call	 ??0sentry@?$basic_ostream@DU?$char_traits@D@std@@@std@@QAE@AAV12@@Z ; std::basic_ostream<char,std::char_traits<char> >::sentry::sentry
  000e9	c7 45 fc 00 00
	00 00		 mov	 DWORD PTR __$EHRec$[ebp+12], 0

; 514  : 
; 515  :     if (!_Ok) {

  000f0	8d 4d c8	 lea	 ecx, DWORD PTR __Ok$[ebp]
  000f3	e8 00 00 00 00	 call	 ??Bsentry@?$basic_ostream@DU?$char_traits@D@std@@@std@@QBE_NXZ ; std::basic_ostream<char,std::char_traits<char> >::sentry::operator bool
  000f8	0f b6 c0	 movzx	 eax, al
  000fb	85 c0		 test	 eax, eax
  000fd	75 0e		 jne	 SHORT $LN11@Insert_str

; 516  :         _State |= _Ostr_t::badbit;

  000ff	8b 45 e4	 mov	 eax, DWORD PTR __State$[ebp]
  00102	83 c8 04	 or	 eax, 4
  00105	89 45 e4	 mov	 DWORD PTR __State$[ebp], eax

; 517  :     } else { // state okay, insert characters

  00108	e9 a5 02 00 00	 jmp	 $LN12@Insert_str
$LN11@Insert_str:

; 518  :         _TRY_IO_BEGIN

  0010d	c6 45 fc 01	 mov	 BYTE PTR __$EHRec$[ebp+12], 1

; 519  :         if ((_Ostr.flags() & _Ostr_t::adjustfield) != _Ostr_t::left) {

  00111	8b 45 08	 mov	 eax, DWORD PTR __Ostr$[ebp]
  00114	8b 08		 mov	 ecx, DWORD PTR [eax]
  00116	8b 55 08	 mov	 edx, DWORD PTR __Ostr$[ebp]
  00119	03 51 04	 add	 edx, DWORD PTR [ecx+4]
  0011c	8b f4		 mov	 esi, esp
  0011e	8b ca		 mov	 ecx, edx
  00120	ff 15 00 00 00
	00		 call	 DWORD PTR __imp_?flags@ios_base@std@@QBEHXZ
  00126	3b f4		 cmp	 esi, esp
  00128	e8 00 00 00 00	 call	 __RTC_CheckEsp
  0012d	89 85 c4 fe ff
	ff		 mov	 DWORD PTR tv135[ebp], eax
  00133	8b 85 c4 fe ff
	ff		 mov	 eax, DWORD PTR tv135[ebp]
  00139	25 c0 01 00 00	 and	 eax, 448		; 000001c0H
  0013e	83 f8 40	 cmp	 eax, 64			; 00000040H
  00141	0f 84 c0 00 00
	00		 je	 $LN14@Insert_str

; 520  :             for (; 0 < _Pad; --_Pad) { // pad on left

  00147	eb 09		 jmp	 SHORT $LN4@Insert_str
$LN2@Insert_str:
  00149	8b 45 d8	 mov	 eax, DWORD PTR __Pad$[ebp]
  0014c	83 e8 01	 sub	 eax, 1
  0014f	89 45 d8	 mov	 DWORD PTR __Pad$[ebp], eax
$LN4@Insert_str:
  00152	83 7d d8 00	 cmp	 DWORD PTR __Pad$[ebp], 0
  00156	0f 86 ab 00 00
	00		 jbe	 $LN14@Insert_str

; 521  :                 if (_Traits::eq_int_type(_Traits::eof(), _Ostr.rdbuf()->sputc(_Ostr.fill()))) {

  0015c	8b 45 08	 mov	 eax, DWORD PTR __Ostr$[ebp]
  0015f	8b 08		 mov	 ecx, DWORD PTR [eax]
  00161	8b 55 08	 mov	 edx, DWORD PTR __Ostr$[ebp]
  00164	03 51 04	 add	 edx, DWORD PTR [ecx+4]
  00167	8b f4		 mov	 esi, esp
  00169	8b ca		 mov	 ecx, edx
  0016b	ff 15 00 00 00
	00		 call	 DWORD PTR __imp_?fill@?$basic_ios@DU?$char_traits@D@std@@@std@@QBEDXZ
  00171	3b f4		 cmp	 esi, esp
  00173	e8 00 00 00 00	 call	 __RTC_CheckEsp
  00178	88 85 c7 fe ff
	ff		 mov	 BYTE PTR tv283[ebp], al
  0017e	8b 45 08	 mov	 eax, DWORD PTR __Ostr$[ebp]
  00181	8b 08		 mov	 ecx, DWORD PTR [eax]
  00183	8b 55 08	 mov	 edx, DWORD PTR __Ostr$[ebp]
  00186	03 51 04	 add	 edx, DWORD PTR [ecx+4]
  00189	8b f4		 mov	 esi, esp
  0018b	8b ca		 mov	 ecx, edx
  0018d	ff 15 00 00 00
	00		 call	 DWORD PTR __imp_?rdbuf@?$basic_ios@DU?$char_traits@D@std@@@std@@QBEPAV?$basic_streambuf@DU?$char_traits@D@std@@@2@XZ
  00193	3b f4		 cmp	 esi, esp
  00195	e8 00 00 00 00	 call	 __RTC_CheckEsp
  0019a	89 85 c0 fe ff
	ff		 mov	 DWORD PTR tv284[ebp], eax
  001a0	8b f4		 mov	 esi, esp
  001a2	0f b6 85 c7 fe
	ff ff		 movzx	 eax, BYTE PTR tv283[ebp]
  001a9	50		 push	 eax
  001aa	8b 8d c0 fe ff
	ff		 mov	 ecx, DWORD PTR tv284[ebp]
  001b0	ff 15 00 00 00
	00		 call	 DWORD PTR __imp_?sputc@?$basic_streambuf@DU?$char_traits@D@std@@@std@@QAEHD@Z
  001b6	3b f4		 cmp	 esi, esp
  001b8	e8 00 00 00 00	 call	 __RTC_CheckEsp
  001bd	89 85 bc fe ff
	ff		 mov	 DWORD PTR tv285[ebp], eax
  001c3	8b 8d bc fe ff
	ff		 mov	 ecx, DWORD PTR tv285[ebp]
  001c9	89 8d fc fe ff
	ff		 mov	 DWORD PTR $T6[ebp], ecx
  001cf	e8 00 00 00 00	 call	 ?eof@?$_Narrow_char_traits@DH@std@@SAHXZ ; std::_Narrow_char_traits<char,int>::eof
  001d4	89 85 f0 fe ff
	ff		 mov	 DWORD PTR $T5[ebp], eax
  001da	8d 95 fc fe ff
	ff		 lea	 edx, DWORD PTR $T6[ebp]
  001e0	52		 push	 edx
  001e1	8d 85 f0 fe ff
	ff		 lea	 eax, DWORD PTR $T5[ebp]
  001e7	50		 push	 eax
  001e8	e8 00 00 00 00	 call	 ?eq_int_type@?$_Narrow_char_traits@DH@std@@SA_NABH0@Z ; std::_Narrow_char_traits<char,int>::eq_int_type
  001ed	83 c4 08	 add	 esp, 8
  001f0	0f b6 c8	 movzx	 ecx, al
  001f3	85 c9		 test	 ecx, ecx
  001f5	74 0b		 je	 SHORT $LN15@Insert_str

; 522  :                     _State |= _Ostr_t::badbit; // insertion failed, quit

  001f7	8b 45 e4	 mov	 eax, DWORD PTR __State$[ebp]
  001fa	83 c8 04	 or	 eax, 4
  001fd	89 45 e4	 mov	 DWORD PTR __State$[ebp], eax

; 523  :                     break;

  00200	eb 05		 jmp	 SHORT $LN14@Insert_str
$LN15@Insert_str:

; 524  :                 }
; 525  :             }

  00202	e9 42 ff ff ff	 jmp	 $LN2@Insert_str
$LN14@Insert_str:

; 526  :         }
; 527  : 
; 528  :         if (_State == _Ostr_t::goodbit
; 529  :             && _Ostr.rdbuf()->sputn(_Data, static_cast<streamsize>(_Size)) != static_cast<streamsize>(_Size)) {

  00207	83 7d e4 00	 cmp	 DWORD PTR __State$[ebp], 0
  0020b	0f 85 89 00 00
	00		 jne	 $LN16@Insert_str
  00211	8b 45 08	 mov	 eax, DWORD PTR __Ostr$[ebp]
  00214	8b 08		 mov	 ecx, DWORD PTR [eax]
  00216	8b 55 08	 mov	 edx, DWORD PTR __Ostr$[ebp]
  00219	03 51 04	 add	 edx, DWORD PTR [ecx+4]
  0021c	8b f4		 mov	 esi, esp
  0021e	8b ca		 mov	 ecx, edx
  00220	ff 15 00 00 00
	00		 call	 DWORD PTR __imp_?rdbuf@?$basic_ios@DU?$char_traits@D@std@@@std@@QBEPAV?$basic_streambuf@DU?$char_traits@D@std@@@2@XZ
  00226	3b f4		 cmp	 esi, esp
  00228	e8 00 00 00 00	 call	 __RTC_CheckEsp
  0022d	89 85 c4 fe ff
	ff		 mov	 DWORD PTR tv286[ebp], eax
  00233	8b 45 10	 mov	 eax, DWORD PTR __Size$[ebp]
  00236	33 c9		 xor	 ecx, ecx
  00238	8b f4		 mov	 esi, esp
  0023a	51		 push	 ecx
  0023b	50		 push	 eax
  0023c	8b 55 0c	 mov	 edx, DWORD PTR __Data$[ebp]
  0023f	52		 push	 edx
  00240	8b 8d c4 fe ff
	ff		 mov	 ecx, DWORD PTR tv286[ebp]
  00246	ff 15 00 00 00
	00		 call	 DWORD PTR __imp_?sputn@?$basic_streambuf@DU?$char_traits@D@std@@@std@@QAE_JPBD_J@Z
  0024c	3b f4		 cmp	 esi, esp
  0024e	e8 00 00 00 00	 call	 __RTC_CheckEsp
  00253	89 85 bc fe ff
	ff		 mov	 DWORD PTR tv287[ebp], eax
  00259	89 95 c0 fe ff
	ff		 mov	 DWORD PTR tv287[ebp+4], edx
  0025f	8b 45 10	 mov	 eax, DWORD PTR __Size$[ebp]
  00262	33 c9		 xor	 ecx, ecx
  00264	89 85 b4 fe ff
	ff		 mov	 DWORD PTR tv405[ebp], eax
  0026a	89 8d b8 fe ff
	ff		 mov	 DWORD PTR tv405[ebp+4], ecx
  00270	8b 95 bc fe ff
	ff		 mov	 edx, DWORD PTR tv287[ebp]
  00276	3b 95 b4 fe ff
	ff		 cmp	 edx, DWORD PTR tv405[ebp]
  0027c	75 0e		 jne	 SHORT $LN26@Insert_str
  0027e	8b 85 c0 fe ff
	ff		 mov	 eax, DWORD PTR tv287[ebp+4]
  00284	3b 85 b8 fe ff
	ff		 cmp	 eax, DWORD PTR tv405[ebp+4]
  0028a	74 0e		 je	 SHORT $LN16@Insert_str
$LN26@Insert_str:

; 530  :             _State |= _Ostr_t::badbit;

  0028c	8b 45 e4	 mov	 eax, DWORD PTR __State$[ebp]
  0028f	83 c8 04	 or	 eax, 4
  00292	89 45 e4	 mov	 DWORD PTR __State$[ebp], eax

; 531  :         } else {

  00295	e9 c0 00 00 00	 jmp	 $LN17@Insert_str
$LN16@Insert_str:

; 532  :             for (; 0 < _Pad; --_Pad) { // pad on right

  0029a	eb 09		 jmp	 SHORT $LN7@Insert_str
$LN5@Insert_str:
  0029c	8b 45 d8	 mov	 eax, DWORD PTR __Pad$[ebp]
  0029f	83 e8 01	 sub	 eax, 1
  002a2	89 45 d8	 mov	 DWORD PTR __Pad$[ebp], eax
$LN7@Insert_str:
  002a5	83 7d d8 00	 cmp	 DWORD PTR __Pad$[ebp], 0
  002a9	0f 86 ab 00 00
	00		 jbe	 $LN17@Insert_str

; 533  :                 if (_Traits::eq_int_type(_Traits::eof(), _Ostr.rdbuf()->sputc(_Ostr.fill()))) {

  002af	8b 45 08	 mov	 eax, DWORD PTR __Ostr$[ebp]
  002b2	8b 08		 mov	 ecx, DWORD PTR [eax]
  002b4	8b 55 08	 mov	 edx, DWORD PTR __Ostr$[ebp]
  002b7	03 51 04	 add	 edx, DWORD PTR [ecx+4]
  002ba	8b f4		 mov	 esi, esp
  002bc	8b ca		 mov	 ecx, edx
  002be	ff 15 00 00 00
	00		 call	 DWORD PTR __imp_?fill@?$basic_ios@DU?$char_traits@D@std@@@std@@QBEDXZ
  002c4	3b f4		 cmp	 esi, esp
  002c6	e8 00 00 00 00	 call	 __RTC_CheckEsp
  002cb	88 85 c7 fe ff
	ff		 mov	 BYTE PTR tv288[ebp], al
  002d1	8b 45 08	 mov	 eax, DWORD PTR __Ostr$[ebp]
  002d4	8b 08		 mov	 ecx, DWORD PTR [eax]
  002d6	8b 55 08	 mov	 edx, DWORD PTR __Ostr$[ebp]
  002d9	03 51 04	 add	 edx, DWORD PTR [ecx+4]
  002dc	8b f4		 mov	 esi, esp
  002de	8b ca		 mov	 ecx, edx
  002e0	ff 15 00 00 00
	00		 call	 DWORD PTR __imp_?rdbuf@?$basic_ios@DU?$char_traits@D@std@@@std@@QBEPAV?$basic_streambuf@DU?$char_traits@D@std@@@2@XZ
  002e6	3b f4		 cmp	 esi, esp
  002e8	e8 00 00 00 00	 call	 __RTC_CheckEsp
  002ed	89 85 c0 fe ff
	ff		 mov	 DWORD PTR tv289[ebp], eax
  002f3	8b f4		 mov	 esi, esp
  002f5	0f b6 85 c7 fe
	ff ff		 movzx	 eax, BYTE PTR tv288[ebp]
  002fc	50		 push	 eax
  002fd	8b 8d c0 fe ff
	ff		 mov	 ecx, DWORD PTR tv289[ebp]
  00303	ff 15 00 00 00
	00		 call	 DWORD PTR __imp_?sputc@?$basic_streambuf@DU?$char_traits@D@std@@@std@@QAEHD@Z
  00309	3b f4		 cmp	 esi, esp
  0030b	e8 00 00 00 00	 call	 __RTC_CheckEsp
  00310	89 85 bc fe ff
	ff		 mov	 DWORD PTR tv290[ebp], eax
  00316	8b 8d bc fe ff
	ff		 mov	 ecx, DWORD PTR tv290[ebp]
  0031c	89 8d e4 fe ff
	ff		 mov	 DWORD PTR $T4[ebp], ecx
  00322	e8 00 00 00 00	 call	 ?eof@?$_Narrow_char_traits@DH@std@@SAHXZ ; std::_Narrow_char_traits<char,int>::eof
  00327	89 85 d8 fe ff
	ff		 mov	 DWORD PTR $T3[ebp], eax
  0032d	8d 95 e4 fe ff
	ff		 lea	 edx, DWORD PTR $T4[ebp]
  00333	52		 push	 edx
  00334	8d 85 d8 fe ff
	ff		 lea	 eax, DWORD PTR $T3[ebp]
  0033a	50		 push	 eax
  0033b	e8 00 00 00 00	 call	 ?eq_int_type@?$_Narrow_char_traits@DH@std@@SA_NABH0@Z ; std::_Narrow_char_traits<char,int>::eq_int_type
  00340	83 c4 08	 add	 esp, 8
  00343	0f b6 c8	 movzx	 ecx, al
  00346	85 c9		 test	 ecx, ecx
  00348	74 0b		 je	 SHORT $LN18@Insert_str

; 534  :                     _State |= _Ostr_t::badbit; // insertion failed, quit

  0034a	8b 45 e4	 mov	 eax, DWORD PTR __State$[ebp]
  0034d	83 c8 04	 or	 eax, 4
  00350	89 45 e4	 mov	 DWORD PTR __State$[ebp], eax

; 535  :                     break;

  00353	eb 05		 jmp	 SHORT $LN17@Insert_str
$LN18@Insert_str:

; 536  :                 }
; 537  :             }

  00355	e9 42 ff ff ff	 jmp	 $LN5@Insert_str
$LN17@Insert_str:

; 538  :         }
; 539  : 
; 540  :         _Ostr.width(0);

  0035a	8b f4		 mov	 esi, esp
  0035c	6a 00		 push	 0
  0035e	6a 00		 push	 0
  00360	8b 45 08	 mov	 eax, DWORD PTR __Ostr$[ebp]
  00363	8b 08		 mov	 ecx, DWORD PTR [eax]
  00365	8b 55 08	 mov	 edx, DWORD PTR __Ostr$[ebp]
  00368	03 51 04	 add	 edx, DWORD PTR [ecx+4]
  0036b	8b ca		 mov	 ecx, edx
  0036d	ff 15 00 00 00
	00		 call	 DWORD PTR __imp_?width@ios_base@std@@QAE_J_J@Z
  00373	3b f4		 cmp	 esi, esp
  00375	e8 00 00 00 00	 call	 __RTC_CheckEsp
  0037a	eb 26		 jmp	 SHORT $LN20@Insert_str
__catch$??$_Insert_string@DU?$char_traits@D@std@@I@std@@YAAAV?$basic_ostream@DU?$char_traits@D@std@@@0@AAV10@QBDI@Z$0:

; 541  :         _CATCH_IO_(_Ostr_t, _Ostr)

  0037c	8b f4		 mov	 esi, esp
  0037e	6a 01		 push	 1
  00380	6a 04		 push	 4
  00382	8b 45 08	 mov	 eax, DWORD PTR __Ostr$[ebp]
  00385	8b 08		 mov	 ecx, DWORD PTR [eax]
  00387	8b 55 08	 mov	 edx, DWORD PTR __Ostr$[ebp]
  0038a	03 51 04	 add	 edx, DWORD PTR [ecx+4]
  0038d	8b ca		 mov	 ecx, edx
  0038f	ff 15 00 00 00
	00		 call	 DWORD PTR __imp_?setstate@?$basic_ios@DU?$char_traits@D@std@@@std@@QAEXH_N@Z
  00395	3b f4		 cmp	 esi, esp
  00397	e8 00 00 00 00	 call	 __RTC_CheckEsp
  0039c	b8 00 00 00 00	 mov	 eax, $LN24@Insert_str
  003a1	c3		 ret	 0
$LN20@Insert_str:
  003a2	c7 45 fc 00 00
	00 00		 mov	 DWORD PTR __$EHRec$[ebp+12], 0
  003a9	eb 07		 jmp	 SHORT $LN12@Insert_str
$LN24@Insert_str:
  003ab	c7 45 fc 00 00
	00 00		 mov	 DWORD PTR __$EHRec$[ebp+12], 0
$LN12@Insert_str:

; 542  :     }
; 543  : 
; 544  :     _Ostr.setstate(_State);

  003b2	8b f4		 mov	 esi, esp
  003b4	6a 00		 push	 0
  003b6	8b 45 e4	 mov	 eax, DWORD PTR __State$[ebp]
  003b9	50		 push	 eax
  003ba	8b 4d 08	 mov	 ecx, DWORD PTR __Ostr$[ebp]
  003bd	8b 11		 mov	 edx, DWORD PTR [ecx]
  003bf	8b 4d 08	 mov	 ecx, DWORD PTR __Ostr$[ebp]
  003c2	03 4a 04	 add	 ecx, DWORD PTR [edx+4]
  003c5	ff 15 00 00 00
	00		 call	 DWORD PTR __imp_?setstate@?$basic_ios@DU?$char_traits@D@std@@@std@@QAEXH_N@Z
  003cb	3b f4		 cmp	 esi, esp
  003cd	e8 00 00 00 00	 call	 __RTC_CheckEsp

; 545  :     return _Ostr;

  003d2	8b 45 08	 mov	 eax, DWORD PTR __Ostr$[ebp]
  003d5	89 85 cc fe ff
	ff		 mov	 DWORD PTR $T2[ebp], eax
  003db	c7 45 fc ff ff
	ff ff		 mov	 DWORD PTR __$EHRec$[ebp+12], -1
  003e2	8d 4d c8	 lea	 ecx, DWORD PTR __Ok$[ebp]
  003e5	e8 00 00 00 00	 call	 ??1sentry@?$basic_ostream@DU?$char_traits@D@std@@@std@@QAE@XZ ; std::basic_ostream<char,std::char_traits<char> >::sentry::~sentry
  003ea	8b 85 cc fe ff
	ff		 mov	 eax, DWORD PTR $T2[ebp]

; 546  : }

  003f0	52		 push	 edx
  003f1	8b cd		 mov	 ecx, ebp
  003f3	50		 push	 eax
  003f4	8d 15 00 00 00
	00		 lea	 edx, DWORD PTR $LN30@Insert_str
  003fa	e8 00 00 00 00	 call	 @_RTC_CheckStackVars@8
  003ff	58		 pop	 eax
  00400	5a		 pop	 edx
  00401	8b 4d f4	 mov	 ecx, DWORD PTR __$EHRec$[ebp+4]
  00404	64 89 0d 00 00
	00 00		 mov	 DWORD PTR fs:0, ecx
  0040b	59		 pop	 ecx
  0040c	5f		 pop	 edi
  0040d	5e		 pop	 esi
  0040e	5b		 pop	 ebx
  0040f	8b 4d ec	 mov	 ecx, DWORD PTR __$ArrayPad$[ebp]
  00412	33 cd		 xor	 ecx, ebp
  00414	e8 00 00 00 00	 call	 @__security_check_cookie@4
  00419	81 c4 4c 01 00
	00		 add	 esp, 332		; 0000014cH
  0041f	3b ec		 cmp	 ebp, esp
  00421	e8 00 00 00 00	 call	 __RTC_CheckEsp
  00426	8b e5		 mov	 esp, ebp
  00428	5d		 pop	 ebp
  00429	c3		 ret	 0
  0042a	66 90		 npad	 2
$LN30@Insert_str:
  0042c	01 00 00 00	 DD	 1
  00430	00 00 00 00	 DD	 $LN29@Insert_str
$LN29@Insert_str:
  00434	c8 ff ff ff	 DD	 -56			; ffffffc8H
  00438	08 00 00 00	 DD	 8
  0043c	00 00 00 00	 DD	 $LN27@Insert_str
$LN27@Insert_str:
  00440	5f		 DB	 95			; 0000005fH
  00441	4f		 DB	 79			; 0000004fH
  00442	6b		 DB	 107			; 0000006bH
  00443	00		 DB	 0
_TEXT	ENDS
;	COMDAT text$x
text$x	SEGMENT
__unwindfunclet$??$_Insert_string@DU?$char_traits@D@std@@I@std@@YAAAV?$basic_ostream@DU?$char_traits@D@std@@@0@AAV10@QBDI@Z$2:
  00000	8d 4d c8	 lea	 ecx, DWORD PTR __Ok$[ebp]
  00003	e9 00 00 00 00	 jmp	 ??1sentry@?$basic_ostream@DU?$char_traits@D@std@@@std@@QAE@XZ ; std::basic_ostream<char,std::char_traits<char> >::sentry::~sentry
  00008	cc		 int	 3
  00009	cc		 int	 3
  0000a	cc		 int	 3
  0000b	cc		 int	 3
  0000c	cc		 int	 3
__ehhandler$??$_Insert_string@DU?$char_traits@D@std@@I@std@@YAAAV?$basic_ostream@DU?$char_traits@D@std@@@0@AAV10@QBDI@Z:
  0000d	90		 npad	 1
  0000e	90		 npad	 1
  0000f	8b 54 24 08	 mov	 edx, DWORD PTR [esp+8]
  00013	8d 42 0c	 lea	 eax, DWORD PTR [edx+12]
  00016	8b 8a b0 fe ff
	ff		 mov	 ecx, DWORD PTR [edx-336]
  0001c	33 c8		 xor	 ecx, eax
  0001e	e8 00 00 00 00	 call	 @__security_check_cookie@4
  00023	8b 4a f8	 mov	 ecx, DWORD PTR [edx-8]
  00026	33 c8		 xor	 ecx, eax
  00028	e8 00 00 00 00	 call	 @__security_check_cookie@4
  0002d	b8 00 00 00 00	 mov	 eax, OFFSET __ehfuncinfo$??$_Insert_string@DU?$char_traits@D@std@@I@std@@YAAAV?$basic_ostream@DU?$char_traits@D@std@@@0@AAV10@QBDI@Z
  00032	e9 00 00 00 00	 jmp	 ___CxxFrameHandler3
text$x	ENDS
??$_Insert_string@DU?$char_traits@D@std@@I@std@@YAAAV?$basic_ostream@DU?$char_traits@D@std@@@0@AAV10@QBDI@Z ENDP ; std::_Insert_string<char,std::char_traits<char>,unsigned int>
; Function compile flags: /Odtp /RTCsu /ZI
; File C:\Program Files (x86)\Microsoft Visual Studio\2019\Community\VC\Tools\MSVC\14.29.30133\include\type_traits
;	COMDAT ??$forward@PAU_Container_base12@std@@@std@@YA$$QAPAU_Container_base12@0@AAPAU10@@Z
_TEXT	SEGMENT
__Arg$ = 8						; size = 4
??$forward@PAU_Container_base12@std@@@std@@YA$$QAPAU_Container_base12@0@AAPAU10@@Z PROC ; std::forward<std::_Container_base12 *>, COMDAT

; 1443 :     remove_reference_t<_Ty>& _Arg) noexcept { // forward an lvalue as either an lvalue or an rvalue

  00000	55		 push	 ebp
  00001	8b ec		 mov	 ebp, esp
  00003	81 ec c0 00 00
	00		 sub	 esp, 192		; 000000c0H
  00009	53		 push	 ebx
  0000a	56		 push	 esi
  0000b	57		 push	 edi
  0000c	8b fd		 mov	 edi, ebp
  0000e	33 c9		 xor	 ecx, ecx
  00010	b8 cc cc cc cc	 mov	 eax, -858993460		; ccccccccH
  00015	f3 ab		 rep stosd
  00017	b9 00 00 00 00	 mov	 ecx, OFFSET __589FA321_type_traits
  0001c	e8 00 00 00 00	 call	 @__CheckForDebuggerJustMyCode@4

; 1444 :     return static_cast<_Ty&&>(_Arg);

  00021	8b 45 08	 mov	 eax, DWORD PTR __Arg$[ebp]

; 1445 : }

  00024	5f		 pop	 edi
  00025	5e		 pop	 esi
  00026	5b		 pop	 ebx
  00027	81 c4 c0 00 00
	00		 add	 esp, 192		; 000000c0H
  0002d	3b ec		 cmp	 ebp, esp
  0002f	e8 00 00 00 00	 call	 __RTC_CheckEsp
  00034	8b e5		 mov	 esp, ebp
  00036	5d		 pop	 ebp
  00037	c3		 ret	 0
??$forward@PAU_Container_base12@std@@@std@@YA$$QAPAU_Container_base12@0@AAPAU10@@Z ENDP ; std::forward<std::_Container_base12 *>
_TEXT	ENDS
; Function compile flags: /Odtp /RTCsu /ZI
; File C:\Program Files (x86)\Microsoft Visual Studio\2019\Community\VC\Tools\MSVC\14.29.30133\include\xutility
;	COMDAT ??$_Voidify_iter@PAU_Container_proxy@std@@@std@@YAPAXPAU_Container_proxy@0@@Z
_TEXT	SEGMENT
__It$ = 8						; size = 4
??$_Voidify_iter@PAU_Container_proxy@std@@@std@@YAPAXPAU_Container_proxy@0@@Z PROC ; std::_Voidify_iter<std::_Container_proxy *>, COMDAT

; 130  : _NODISCARD constexpr void* _Voidify_iter(_Iter _It) noexcept {

  00000	55		 push	 ebp
  00001	8b ec		 mov	 ebp, esp
  00003	81 ec c0 00 00
	00		 sub	 esp, 192		; 000000c0H
  00009	53		 push	 ebx
  0000a	56		 push	 esi
  0000b	57		 push	 edi
  0000c	8b fd		 mov	 edi, ebp
  0000e	33 c9		 xor	 ecx, ecx
  00010	b8 cc cc cc cc	 mov	 eax, -858993460		; ccccccccH
  00015	f3 ab		 rep stosd
  00017	b9 00 00 00 00	 mov	 ecx, OFFSET __12269DE6_xutility
  0001c	e8 00 00 00 00	 call	 @__CheckForDebuggerJustMyCode@4

; 131  :     if constexpr (is_pointer_v<_Iter>) {
; 132  :         return const_cast<void*>(static_cast<const volatile void*>(_It));

  00021	8b 45 08	 mov	 eax, DWORD PTR __It$[ebp]

; 133  :     } else {
; 134  :         return const_cast<void*>(static_cast<const volatile void*>(_STD addressof(*_It)));
; 135  :     }
; 136  : }

  00024	5f		 pop	 edi
  00025	5e		 pop	 esi
  00026	5b		 pop	 ebx
  00027	81 c4 c0 00 00
	00		 add	 esp, 192		; 000000c0H
  0002d	3b ec		 cmp	 ebp, esp
  0002f	e8 00 00 00 00	 call	 __RTC_CheckEsp
  00034	8b e5		 mov	 esp, ebp
  00036	5d		 pop	 ebp
  00037	c3		 ret	 0
??$_Voidify_iter@PAU_Container_proxy@std@@@std@@YAPAXPAU_Container_proxy@0@@Z ENDP ; std::_Voidify_iter<std::_Container_proxy *>
_TEXT	ENDS
; Function compile flags: /Odtp /RTCsu /ZI
; File C:\Program Files (x86)\Microsoft Visual Studio\2019\Community\VC\Tools\MSVC\14.29.30133\include\xstddef
;	COMDAT ??$addressof@U_Container_proxy@std@@@std@@YAPAU_Container_proxy@0@AAU10@@Z
_TEXT	SEGMENT
__Val$ = 8						; size = 4
??$addressof@U_Container_proxy@std@@@std@@YAPAU_Container_proxy@0@AAU10@@Z PROC ; std::addressof<std::_Container_proxy>, COMDAT

; 274  : _NODISCARD constexpr _Ty* addressof(_Ty& _Val) noexcept {

  00000	55		 push	 ebp
  00001	8b ec		 mov	 ebp, esp
  00003	81 ec c0 00 00
	00		 sub	 esp, 192		; 000000c0H
  00009	53		 push	 ebx
  0000a	56		 push	 esi
  0000b	57		 push	 edi
  0000c	8b fd		 mov	 edi, ebp
  0000e	33 c9		 xor	 ecx, ecx
  00010	b8 cc cc cc cc	 mov	 eax, -858993460		; ccccccccH
  00015	f3 ab		 rep stosd
  00017	b9 00 00 00 00	 mov	 ecx, OFFSET __E458E21C_xstddef
  0001c	e8 00 00 00 00	 call	 @__CheckForDebuggerJustMyCode@4

; 275  :     return __builtin_addressof(_Val);

  00021	8b 45 08	 mov	 eax, DWORD PTR __Val$[ebp]

; 276  : }

  00024	5f		 pop	 edi
  00025	5e		 pop	 esi
  00026	5b		 pop	 ebx
  00027	81 c4 c0 00 00
	00		 add	 esp, 192		; 000000c0H
  0002d	3b ec		 cmp	 ebp, esp
  0002f	e8 00 00 00 00	 call	 __RTC_CheckEsp
  00034	8b e5		 mov	 esp, ebp
  00036	5d		 pop	 ebp
  00037	c3		 ret	 0
??$addressof@U_Container_proxy@std@@@std@@YAPAU_Container_proxy@0@AAU10@@Z ENDP ; std::addressof<std::_Container_proxy>
_TEXT	ENDS
; Function compile flags: /Odtp /RTCsu /ZI
; File C:\Program Files (x86)\Microsoft Visual Studio\2019\Community\VC\Tools\MSVC\14.29.30133\include\xmemory
;	COMDAT ??$_Get_size_of_n@$00@std@@YAII@Z
_TEXT	SEGMENT
__Overflow_is_possible$ = -5				; size = 1
__Count$ = 8						; size = 4
??$_Get_size_of_n@$00@std@@YAII@Z PROC			; std::_Get_size_of_n<1>, COMDAT

; 59   : _NODISCARD constexpr size_t _Get_size_of_n(const size_t _Count) {

  00000	55		 push	 ebp
  00001	8b ec		 mov	 ebp, esp
  00003	81 ec cc 00 00
	00		 sub	 esp, 204		; 000000ccH
  00009	53		 push	 ebx
  0000a	56		 push	 esi
  0000b	57		 push	 edi
  0000c	8d 7d f4	 lea	 edi, DWORD PTR [ebp-12]
  0000f	b9 03 00 00 00	 mov	 ecx, 3
  00014	b8 cc cc cc cc	 mov	 eax, -858993460		; ccccccccH
  00019	f3 ab		 rep stosd
  0001b	b9 00 00 00 00	 mov	 ecx, OFFSET __79D216CD_xmemory
  00020	e8 00 00 00 00	 call	 @__CheckForDebuggerJustMyCode@4

; 60   :     constexpr bool _Overflow_is_possible = _Ty_size > 1;

  00025	c6 45 fb 00	 mov	 BYTE PTR __Overflow_is_possible$[ebp], 0

; 61   : 
; 62   :     if constexpr (_Overflow_is_possible) {
; 63   :         constexpr size_t _Max_possible = static_cast<size_t>(-1) / _Ty_size;
; 64   :         if (_Count > _Max_possible) {
; 65   :             _Throw_bad_array_new_length(); // multiply overflow
; 66   :         }
; 67   :     }
; 68   : 
; 69   :     return _Count * _Ty_size;

  00029	8b 45 08	 mov	 eax, DWORD PTR __Count$[ebp]

; 70   : }

  0002c	5f		 pop	 edi
  0002d	5e		 pop	 esi
  0002e	5b		 pop	 ebx
  0002f	81 c4 cc 00 00
	00		 add	 esp, 204		; 000000ccH
  00035	3b ec		 cmp	 ebp, esp
  00037	e8 00 00 00 00	 call	 __RTC_CheckEsp
  0003c	8b e5		 mov	 esp, ebp
  0003e	5d		 pop	 ebp
  0003f	c3		 ret	 0
??$_Get_size_of_n@$00@std@@YAII@Z ENDP			; std::_Get_size_of_n<1>
_TEXT	ENDS
; Function compile flags: /Odtp /RTCsu /ZI
; File C:\Program Files (x86)\Microsoft Visual Studio\2019\Community\VC\Tools\MSVC\14.29.30133\include\xmemory
;	COMDAT ??$_Deallocate@$07$0A@@std@@YAXPAXI@Z
_TEXT	SEGMENT
__$EHRec$ = -12						; size = 12
__Ptr$ = 8						; size = 4
__Bytes$ = 12						; size = 4
??$_Deallocate@$07$0A@@std@@YAXPAXI@Z PROC		; std::_Deallocate<8,0>, COMDAT

; 251  : _CONSTEXPR20_DYNALLOC void _Deallocate(void* _Ptr, size_t _Bytes) noexcept {

  00000	55		 push	 ebp
  00001	8b ec		 mov	 ebp, esp
  00003	6a ff		 push	 -1
  00005	68 00 00 00 00	 push	 __ehhandler$??$_Deallocate@$07$0A@@std@@YAXPAXI@Z
  0000a	64 a1 00 00 00
	00		 mov	 eax, DWORD PTR fs:0
  00010	50		 push	 eax
  00011	81 ec c0 00 00
	00		 sub	 esp, 192		; 000000c0H
  00017	53		 push	 ebx
  00018	56		 push	 esi
  00019	57		 push	 edi
  0001a	8d 7d f4	 lea	 edi, DWORD PTR [ebp-12]
  0001d	33 c9		 xor	 ecx, ecx
  0001f	b8 cc cc cc cc	 mov	 eax, -858993460		; ccccccccH
  00024	f3 ab		 rep stosd
  00026	a1 00 00 00 00	 mov	 eax, DWORD PTR ___security_cookie
  0002b	33 c5		 xor	 eax, ebp
  0002d	50		 push	 eax
  0002e	8d 45 f4	 lea	 eax, DWORD PTR __$EHRec$[ebp]
  00031	64 a3 00 00 00
	00		 mov	 DWORD PTR fs:0, eax
  00037	b9 00 00 00 00	 mov	 ecx, OFFSET __79D216CD_xmemory
  0003c	e8 00 00 00 00	 call	 @__CheckForDebuggerJustMyCode@4

; 252  :     // deallocate storage allocated by _Allocate when !_HAS_ALIGNED_NEW || _Align <= __STDCPP_DEFAULT_NEW_ALIGNMENT__
; 253  : #ifdef __cpp_lib_constexpr_dynamic_alloc // TRANSITION, GH-1532
; 254  :     if (_STD is_constant_evaluated()) {
; 255  :         ::operator delete(_Ptr);
; 256  :     } else
; 257  : #endif // __cpp_lib_constexpr_dynamic_alloc
; 258  :     {
; 259  : #if defined(_M_IX86) || defined(_M_X64)
; 260  :         if (_Bytes >= _Big_allocation_threshold) { // boost the alignment of big allocations to help autovectorization

  00041	81 7d 0c 00 10
	00 00		 cmp	 DWORD PTR __Bytes$[ebp], 4096 ; 00001000H
  00048	72 10		 jb	 SHORT $LN2@Deallocate

; 261  :             _Adjust_manually_vector_aligned(_Ptr, _Bytes);

  0004a	8d 45 0c	 lea	 eax, DWORD PTR __Bytes$[ebp]
  0004d	50		 push	 eax
  0004e	8d 4d 08	 lea	 ecx, DWORD PTR __Ptr$[ebp]
  00051	51		 push	 ecx
  00052	e8 00 00 00 00	 call	 ?_Adjust_manually_vector_aligned@std@@YAXAAPAXAAI@Z ; std::_Adjust_manually_vector_aligned
  00057	83 c4 08	 add	 esp, 8
$LN2@Deallocate:

; 262  :         }
; 263  : #endif // defined(_M_IX86) || defined(_M_X64)
; 264  :         ::operator delete(_Ptr, _Bytes);

  0005a	8b 45 0c	 mov	 eax, DWORD PTR __Bytes$[ebp]
  0005d	50		 push	 eax
  0005e	8b 4d 08	 mov	 ecx, DWORD PTR __Ptr$[ebp]
  00061	51		 push	 ecx
  00062	e8 00 00 00 00	 call	 ??3@YAXPAXI@Z		; operator delete
  00067	83 c4 08	 add	 esp, 8

; 265  :     }
; 266  : }

  0006a	8b 4d f4	 mov	 ecx, DWORD PTR __$EHRec$[ebp]
  0006d	64 89 0d 00 00
	00 00		 mov	 DWORD PTR fs:0, ecx
  00074	59		 pop	 ecx
  00075	5f		 pop	 edi
  00076	5e		 pop	 esi
  00077	5b		 pop	 ebx
  00078	81 c4 cc 00 00
	00		 add	 esp, 204		; 000000ccH
  0007e	3b ec		 cmp	 ebp, esp
  00080	e8 00 00 00 00	 call	 __RTC_CheckEsp
  00085	8b e5		 mov	 esp, ebp
  00087	5d		 pop	 ebp
  00088	c3		 ret	 0
  00089	cc		 int	 3
  0008a	cc		 int	 3
  0008b	cc		 int	 3
  0008c	cc		 int	 3
  0008d	cc		 int	 3
_TEXT	ENDS
;	COMDAT text$x
text$x	SEGMENT
__ehhandler$??$_Deallocate@$07$0A@@std@@YAXPAXI@Z:
  00000	90		 npad	 1
  00001	90		 npad	 1
  00002	8b 54 24 08	 mov	 edx, DWORD PTR [esp+8]
  00006	8d 42 0c	 lea	 eax, DWORD PTR [edx+12]
  00009	8b 8a 30 ff ff
	ff		 mov	 ecx, DWORD PTR [edx-208]
  0000f	33 c8		 xor	 ecx, eax
  00011	e8 00 00 00 00	 call	 @__security_check_cookie@4
  00016	b8 00 00 00 00	 mov	 eax, OFFSET __ehfuncinfo$??$_Deallocate@$07$0A@@std@@YAXPAXI@Z
  0001b	e9 00 00 00 00	 jmp	 ___CxxFrameHandler3
text$x	ENDS
??$_Deallocate@$07$0A@@std@@YAXPAXI@Z ENDP		; std::_Deallocate<8,0>
; Function compile flags: /Odtp /RTCsu /ZI
; File C:\Program Files (x86)\Microsoft Visual Studio\2019\Community\VC\Tools\MSVC\14.29.30133\include\xmemory
;	COMDAT ??$_Allocate@$07U_Default_allocate_traits@std@@$0A@@std@@YAPAXI@Z
_TEXT	SEGMENT
__Bytes$ = 8						; size = 4
??$_Allocate@$07U_Default_allocate_traits@std@@$0A@@std@@YAPAXI@Z PROC ; std::_Allocate<8,std::_Default_allocate_traits,0>, COMDAT

; 230  : __declspec(allocator) _CONSTEXPR20_DYNALLOC void* _Allocate(const size_t _Bytes) {

  00000	55		 push	 ebp
  00001	8b ec		 mov	 ebp, esp
  00003	81 ec c0 00 00
	00		 sub	 esp, 192		; 000000c0H
  00009	53		 push	 ebx
  0000a	56		 push	 esi
  0000b	57		 push	 edi
  0000c	8b fd		 mov	 edi, ebp
  0000e	33 c9		 xor	 ecx, ecx
  00010	b8 cc cc cc cc	 mov	 eax, -858993460		; ccccccccH
  00015	f3 ab		 rep stosd
  00017	b9 00 00 00 00	 mov	 ecx, OFFSET __79D216CD_xmemory
  0001c	e8 00 00 00 00	 call	 @__CheckForDebuggerJustMyCode@4

; 231  :     // allocate _Bytes when !_HAS_ALIGNED_NEW || _Align <= __STDCPP_DEFAULT_NEW_ALIGNMENT__
; 232  : #if defined(_M_IX86) || defined(_M_X64)
; 233  : #ifdef __cpp_lib_constexpr_dynamic_alloc // TRANSITION, GH-1532
; 234  :     if (!_STD is_constant_evaluated())
; 235  : #endif // __cpp_lib_constexpr_dynamic_alloc
; 236  :     {
; 237  :         if (_Bytes >= _Big_allocation_threshold) { // boost the alignment of big allocations to help autovectorization

  00021	81 7d 08 00 10
	00 00		 cmp	 DWORD PTR __Bytes$[ebp], 4096 ; 00001000H
  00028	72 0e		 jb	 SHORT $LN2@Allocate

; 238  :             return _Allocate_manually_vector_aligned<_Traits>(_Bytes);

  0002a	8b 45 08	 mov	 eax, DWORD PTR __Bytes$[ebp]
  0002d	50		 push	 eax
  0002e	e8 00 00 00 00	 call	 ??$_Allocate_manually_vector_aligned@U_Default_allocate_traits@std@@@std@@YAPAXI@Z ; std::_Allocate_manually_vector_aligned<std::_Default_allocate_traits>
  00033	83 c4 04	 add	 esp, 4
  00036	eb 16		 jmp	 SHORT $LN1@Allocate
$LN2@Allocate:

; 239  :         }
; 240  :     }
; 241  : #endif // defined(_M_IX86) || defined(_M_X64)
; 242  : 
; 243  :     if (_Bytes != 0) {

  00038	83 7d 08 00	 cmp	 DWORD PTR __Bytes$[ebp], 0
  0003c	74 0e		 je	 SHORT $LN3@Allocate

; 244  :         return _Traits::_Allocate(_Bytes);

  0003e	8b 45 08	 mov	 eax, DWORD PTR __Bytes$[ebp]
  00041	50		 push	 eax
  00042	e8 00 00 00 00	 call	 ?_Allocate@_Default_allocate_traits@std@@SAPAXI@Z ; std::_Default_allocate_traits::_Allocate
  00047	83 c4 04	 add	 esp, 4
  0004a	eb 02		 jmp	 SHORT $LN1@Allocate
$LN3@Allocate:

; 245  :     }
; 246  : 
; 247  :     return nullptr;

  0004c	33 c0		 xor	 eax, eax
$LN1@Allocate:

; 248  : }

  0004e	5f		 pop	 edi
  0004f	5e		 pop	 esi
  00050	5b		 pop	 ebx
  00051	81 c4 c0 00 00
	00		 add	 esp, 192		; 000000c0H
  00057	3b ec		 cmp	 ebp, esp
  00059	e8 00 00 00 00	 call	 __RTC_CheckEsp
  0005e	8b e5		 mov	 esp, ebp
  00060	5d		 pop	 ebp
  00061	c3		 ret	 0
??$_Allocate@$07U_Default_allocate_traits@std@@$0A@@std@@YAPAXI@Z ENDP ; std::_Allocate<8,std::_Default_allocate_traits,0>
_TEXT	ENDS
; Function compile flags: /Odtp /RTCsu /ZI
; File C:\Program Files (x86)\Microsoft Visual Studio\2019\Community\VC\Tools\MSVC\14.29.30133\include\xmemory
;	COMDAT ??$_Get_size_of_n@$07@std@@YAII@Z
_TEXT	SEGMENT
__Max_possible$1 = -20					; size = 4
__Overflow_is_possible$ = -5				; size = 1
__Count$ = 8						; size = 4
??$_Get_size_of_n@$07@std@@YAII@Z PROC			; std::_Get_size_of_n<8>, COMDAT

; 59   : _NODISCARD constexpr size_t _Get_size_of_n(const size_t _Count) {

  00000	55		 push	 ebp
  00001	8b ec		 mov	 ebp, esp
  00003	81 ec d8 00 00
	00		 sub	 esp, 216		; 000000d8H
  00009	53		 push	 ebx
  0000a	56		 push	 esi
  0000b	57		 push	 edi
  0000c	8d 7d e8	 lea	 edi, DWORD PTR [ebp-24]
  0000f	b9 06 00 00 00	 mov	 ecx, 6
  00014	b8 cc cc cc cc	 mov	 eax, -858993460		; ccccccccH
  00019	f3 ab		 rep stosd
  0001b	b9 00 00 00 00	 mov	 ecx, OFFSET __79D216CD_xmemory
  00020	e8 00 00 00 00	 call	 @__CheckForDebuggerJustMyCode@4

; 60   :     constexpr bool _Overflow_is_possible = _Ty_size > 1;

  00025	c6 45 fb 01	 mov	 BYTE PTR __Overflow_is_possible$[ebp], 1

; 61   : 
; 62   :     if constexpr (_Overflow_is_possible) {
; 63   :         constexpr size_t _Max_possible = static_cast<size_t>(-1) / _Ty_size;

  00029	c7 45 ec ff ff
	ff 1f		 mov	 DWORD PTR __Max_possible$1[ebp], 536870911 ; 1fffffffH

; 64   :         if (_Count > _Max_possible) {

  00030	81 7d 08 ff ff
	ff 1f		 cmp	 DWORD PTR __Count$[ebp], 536870911 ; 1fffffffH
  00037	76 05		 jbe	 SHORT $LN2@Get_size_o

; 65   :             _Throw_bad_array_new_length(); // multiply overflow

  00039	e8 00 00 00 00	 call	 ?_Throw_bad_array_new_length@std@@YAXXZ ; std::_Throw_bad_array_new_length
$LN2@Get_size_o:

; 66   :         }
; 67   :     }
; 68   : 
; 69   :     return _Count * _Ty_size;

  0003e	8b 45 08	 mov	 eax, DWORD PTR __Count$[ebp]
  00041	c1 e0 03	 shl	 eax, 3
$LN3@Get_size_o:

; 70   : }

  00044	5f		 pop	 edi
  00045	5e		 pop	 esi
  00046	5b		 pop	 ebx
  00047	81 c4 d8 00 00
	00		 add	 esp, 216		; 000000d8H
  0004d	3b ec		 cmp	 ebp, esp
  0004f	e8 00 00 00 00	 call	 __RTC_CheckEsp
  00054	8b e5		 mov	 esp, ebp
  00056	5d		 pop	 ebp
  00057	c3		 ret	 0
??$_Get_size_of_n@$07@std@@YAII@Z ENDP			; std::_Get_size_of_n<8>
_TEXT	ENDS
; Function compile flags: /Odtp /RTCsu /ZI
; File C:\Program Files (x86)\Microsoft Visual Studio\2019\Community\VC\Tools\MSVC\14.29.30133\include\utility
;	COMDAT ??$max@I@std@@YAABIABI0@Z
_TEXT	SEGMENT
tv65 = -208						; size = 4
$T1 = -200						; size = 4
__Left$ = 8						; size = 4
__Right$ = 12						; size = 4
??$max@I@std@@YAABIABI0@Z PROC				; std::max<unsigned int>, COMDAT

; 42   :     const _Ty& _Left, const _Ty& _Right) noexcept(noexcept(_Left < _Right)) /* strengthened */ {

  00000	55		 push	 ebp
  00001	8b ec		 mov	 ebp, esp
  00003	81 ec d0 00 00
	00		 sub	 esp, 208		; 000000d0H
  00009	53		 push	 ebx
  0000a	56		 push	 esi
  0000b	57		 push	 edi
  0000c	8d 7d f0	 lea	 edi, DWORD PTR [ebp-16]
  0000f	b9 04 00 00 00	 mov	 ecx, 4
  00014	b8 cc cc cc cc	 mov	 eax, -858993460		; ccccccccH
  00019	f3 ab		 rep stosd
  0001b	b9 00 00 00 00	 mov	 ecx, OFFSET __1347750E_utility
  00020	e8 00 00 00 00	 call	 @__CheckForDebuggerJustMyCode@4

; 43   :     // return larger of _Left and _Right
; 44   :     return _Left < _Right ? _Right : _Left;

  00025	8b 45 08	 mov	 eax, DWORD PTR __Left$[ebp]
  00028	8b 4d 0c	 mov	 ecx, DWORD PTR __Right$[ebp]
  0002b	8b 10		 mov	 edx, DWORD PTR [eax]
  0002d	3b 11		 cmp	 edx, DWORD PTR [ecx]
  0002f	73 0b		 jae	 SHORT $LN3@max
  00031	8b 45 0c	 mov	 eax, DWORD PTR __Right$[ebp]
  00034	89 85 30 ff ff
	ff		 mov	 DWORD PTR tv65[ebp], eax
  0003a	eb 09		 jmp	 SHORT $LN4@max
$LN3@max:
  0003c	8b 4d 08	 mov	 ecx, DWORD PTR __Left$[ebp]
  0003f	89 8d 30 ff ff
	ff		 mov	 DWORD PTR tv65[ebp], ecx
$LN4@max:
  00045	8b 95 30 ff ff
	ff		 mov	 edx, DWORD PTR tv65[ebp]
  0004b	89 95 38 ff ff
	ff		 mov	 DWORD PTR $T1[ebp], edx
  00051	8b 85 38 ff ff
	ff		 mov	 eax, DWORD PTR $T1[ebp]

; 45   : }

  00057	5f		 pop	 edi
  00058	5e		 pop	 esi
  00059	5b		 pop	 ebx
  0005a	81 c4 d0 00 00
	00		 add	 esp, 208		; 000000d0H
  00060	3b ec		 cmp	 ebp, esp
  00062	e8 00 00 00 00	 call	 __RTC_CheckEsp
  00067	8b e5		 mov	 esp, ebp
  00069	5d		 pop	 ebp
  0006a	c3		 ret	 0
??$max@I@std@@YAABIABI0@Z ENDP				; std::max<unsigned int>
_TEXT	ENDS
; Function compile flags: /Odtp /RTCsu /ZI
; File C:\Program Files (x86)\Microsoft Visual Studio\2019\Community\VC\Tools\MSVC\14.29.30133\include\xstddef
;	COMDAT ??$_Unfancy@D@std@@YAPADPAD@Z
_TEXT	SEGMENT
__Ptr$ = 8						; size = 4
??$_Unfancy@D@std@@YAPADPAD@Z PROC			; std::_Unfancy<char>, COMDAT

; 288  : _NODISCARD constexpr _Ty* _Unfancy(_Ty* _Ptr) noexcept { // do nothing for plain pointers

  00000	55		 push	 ebp
  00001	8b ec		 mov	 ebp, esp
  00003	81 ec c0 00 00
	00		 sub	 esp, 192		; 000000c0H
  00009	53		 push	 ebx
  0000a	56		 push	 esi
  0000b	57		 push	 edi
  0000c	8b fd		 mov	 edi, ebp
  0000e	33 c9		 xor	 ecx, ecx
  00010	b8 cc cc cc cc	 mov	 eax, -858993460		; ccccccccH
  00015	f3 ab		 rep stosd
  00017	b9 00 00 00 00	 mov	 ecx, OFFSET __E458E21C_xstddef
  0001c	e8 00 00 00 00	 call	 @__CheckForDebuggerJustMyCode@4

; 289  :     return _Ptr;

  00021	8b 45 08	 mov	 eax, DWORD PTR __Ptr$[ebp]

; 290  : }

  00024	5f		 pop	 edi
  00025	5e		 pop	 esi
  00026	5b		 pop	 ebx
  00027	81 c4 c0 00 00
	00		 add	 esp, 192		; 000000c0H
  0002d	3b ec		 cmp	 ebp, esp
  0002f	e8 00 00 00 00	 call	 __RTC_CheckEsp
  00034	8b e5		 mov	 esp, ebp
  00036	5d		 pop	 ebp
  00037	c3		 ret	 0
??$_Unfancy@D@std@@YAPADPAD@Z ENDP			; std::_Unfancy<char>
_TEXT	ENDS
; Function compile flags: /Odtp /RTCsu /ZI
; File C:\Program Files (x86)\Microsoft Visual Studio\2019\Community\VC\Tools\MSVC\14.29.30133\include\xutility
;	COMDAT ??$_Construct_in_place@PADABQAD@std@@YAXAAPADABQAD@Z
_TEXT	SEGMENT
$T1 = -200						; size = 4
__Obj$ = 8						; size = 4
_<_Args_0>$ = 12					; size = 4
??$_Construct_in_place@PADABQAD@std@@YAXAAPADABQAD@Z PROC ; std::_Construct_in_place<char *,char * const &>, COMDAT

; 151  :     is_nothrow_constructible_v<_Ty, _Types...>) {

  00000	55		 push	 ebp
  00001	8b ec		 mov	 ebp, esp
  00003	81 ec cc 00 00
	00		 sub	 esp, 204		; 000000ccH
  00009	53		 push	 ebx
  0000a	56		 push	 esi
  0000b	57		 push	 edi
  0000c	8d 7d f4	 lea	 edi, DWORD PTR [ebp-12]
  0000f	b9 03 00 00 00	 mov	 ecx, 3
  00014	b8 cc cc cc cc	 mov	 eax, -858993460		; ccccccccH
  00019	f3 ab		 rep stosd
  0001b	b9 00 00 00 00	 mov	 ecx, OFFSET __12269DE6_xutility
  00020	e8 00 00 00 00	 call	 @__CheckForDebuggerJustMyCode@4
  00025	8b 45 08	 mov	 eax, DWORD PTR __Obj$[ebp]
  00028	50		 push	 eax
  00029	e8 00 00 00 00	 call	 ??$addressof@PAD@std@@YAPAPADAAPAD@Z ; std::addressof<char *>
  0002e	83 c4 04	 add	 esp, 4
  00031	50		 push	 eax
  00032	e8 00 00 00 00	 call	 ??$_Voidify_iter@PAPAD@std@@YAPAXPAPAD@Z ; std::_Voidify_iter<char * *>
  00037	83 c4 04	 add	 esp, 4
  0003a	50		 push	 eax
  0003b	6a 04		 push	 4
  0003d	e8 00 00 00 00	 call	 ??2@YAPAXIPAX@Z		; operator new
  00042	83 c4 08	 add	 esp, 8
  00045	89 85 38 ff ff
	ff		 mov	 DWORD PTR $T1[ebp], eax
  0004b	8b 4d 0c	 mov	 ecx, DWORD PTR _<_Args_0>$[ebp]
  0004e	51		 push	 ecx
  0004f	e8 00 00 00 00	 call	 ??$forward@ABQAD@std@@YAABQADABQAD@Z ; std::forward<char * const &>
  00054	83 c4 04	 add	 esp, 4
  00057	8b 95 38 ff ff
	ff		 mov	 edx, DWORD PTR $T1[ebp]
  0005d	8b 00		 mov	 eax, DWORD PTR [eax]
  0005f	89 02		 mov	 DWORD PTR [edx], eax

; 152  : #ifdef __cpp_lib_constexpr_dynamic_alloc
; 153  :     if (_STD is_constant_evaluated()) {
; 154  :         _STD construct_at(_STD addressof(_Obj), _STD forward<_Types>(_Args)...);
; 155  :     } else
; 156  : #endif // __cpp_lib_constexpr_dynamic_alloc
; 157  :     {
; 158  :         ::new (_Voidify_iter(_STD addressof(_Obj))) _Ty(_STD forward<_Types>(_Args)...);
; 159  :     }
; 160  : }

  00061	5f		 pop	 edi
  00062	5e		 pop	 esi
  00063	5b		 pop	 ebx
  00064	81 c4 cc 00 00
	00		 add	 esp, 204		; 000000ccH
  0006a	3b ec		 cmp	 ebp, esp
  0006c	e8 00 00 00 00	 call	 __RTC_CheckEsp
  00071	8b e5		 mov	 esp, ebp
  00073	5d		 pop	 ebp
  00074	c3		 ret	 0
??$_Construct_in_place@PADABQAD@std@@YAXAAPADABQAD@Z ENDP ; std::_Construct_in_place<char *,char * const &>
_TEXT	ENDS
; Function compile flags: /Odtp /RTCsu /ZI
; File C:\Program Files (x86)\Microsoft Visual Studio\2019\Community\VC\Tools\MSVC\14.29.30133\include\xstring
;	COMDAT ??$_Reallocate_for@V<lambda_9366063389c5f42a00a5088cf24e69de>@@PBD@?$basic_string@DU?$char_traits@D@std@@V?$allocator@D@2@@std@@AAEAAV01@IV<lambda_9366063389c5f42a00a5088cf24e69de>@@PBD@Z
_TEXT	SEGMENT
__New_ptr$ = -60					; size = 4
__Al$ = -48						; size = 4
__New_capacity$ = -36					; size = 4
__Old_capacity$ = -24					; size = 4
_this$ = -12						; size = 4
__$ArrayPad$ = -4					; size = 4
__New_size$ = 8						; size = 4
__Fn$ = 12						; size = 1
_<_Args_0>$ = 16					; size = 4
??$_Reallocate_for@V<lambda_9366063389c5f42a00a5088cf24e69de>@@PBD@?$basic_string@DU?$char_traits@D@std@@V?$allocator@D@2@@std@@AAEAAV01@IV<lambda_9366063389c5f42a00a5088cf24e69de>@@PBD@Z PROC ; std::basic_string<char,std::char_traits<char>,std::allocator<char> >::_Reallocate_for<<lambda_9366063389c5f42a00a5088cf24e69de>,char const *>, COMDAT
; _this$ = ecx

; 4505 :     _CONSTEXPR20_CONTAINER basic_string& _Reallocate_for(const size_type _New_size, _Fty _Fn, _ArgTys... _Args) {

  00000	55		 push	 ebp
  00001	8b ec		 mov	 ebp, esp
  00003	81 ec 00 01 00
	00		 sub	 esp, 256		; 00000100H
  00009	53		 push	 ebx
  0000a	56		 push	 esi
  0000b	57		 push	 edi
  0000c	51		 push	 ecx
  0000d	8d 7d c0	 lea	 edi, DWORD PTR [ebp-64]
  00010	b9 10 00 00 00	 mov	 ecx, 16			; 00000010H
  00015	b8 cc cc cc cc	 mov	 eax, -858993460		; ccccccccH
  0001a	f3 ab		 rep stosd
  0001c	59		 pop	 ecx
  0001d	a1 00 00 00 00	 mov	 eax, DWORD PTR ___security_cookie
  00022	33 c5		 xor	 eax, ebp
  00024	89 45 fc	 mov	 DWORD PTR __$ArrayPad$[ebp], eax
  00027	89 4d f4	 mov	 DWORD PTR _this$[ebp], ecx
  0002a	b9 00 00 00 00	 mov	 ecx, OFFSET __0D019051_xstring
  0002f	e8 00 00 00 00	 call	 @__CheckForDebuggerJustMyCode@4

; 4506 :         // reallocate to store exactly _New_size elements, new buffer prepared by
; 4507 :         // _Fn(_New_ptr, _New_size, _Args...)
; 4508 :         if (_New_size > max_size()) {

  00034	8b 4d f4	 mov	 ecx, DWORD PTR _this$[ebp]
  00037	e8 00 00 00 00	 call	 ?max_size@?$basic_string@DU?$char_traits@D@std@@V?$allocator@D@2@@std@@QBEIXZ ; std::basic_string<char,std::char_traits<char>,std::allocator<char> >::max_size
  0003c	39 45 08	 cmp	 DWORD PTR __New_size$[ebp], eax
  0003f	76 05		 jbe	 SHORT $LN2@Reallocate

; 4509 :             _Xlen_string(); // result too long

  00041	e8 00 00 00 00	 call	 ?_Xlen_string@std@@YAXXZ ; std::_Xlen_string
$LN2@Reallocate:

; 4510 :         }
; 4511 : 
; 4512 :         const size_type _Old_capacity = _Mypair._Myval2._Myres;

  00046	8b 45 f4	 mov	 eax, DWORD PTR _this$[ebp]
  00049	8b 48 18	 mov	 ecx, DWORD PTR [eax+24]
  0004c	89 4d e8	 mov	 DWORD PTR __Old_capacity$[ebp], ecx

; 4513 :         const size_type _New_capacity = _Calculate_growth(_New_size);

  0004f	8b 45 08	 mov	 eax, DWORD PTR __New_size$[ebp]
  00052	50		 push	 eax
  00053	8b 4d f4	 mov	 ecx, DWORD PTR _this$[ebp]
  00056	e8 00 00 00 00	 call	 ?_Calculate_growth@?$basic_string@DU?$char_traits@D@std@@V?$allocator@D@2@@std@@ABEII@Z ; std::basic_string<char,std::char_traits<char>,std::allocator<char> >::_Calculate_growth
  0005b	89 45 dc	 mov	 DWORD PTR __New_capacity$[ebp], eax

; 4514 :         auto& _Al                     = _Getal();

  0005e	8b 4d f4	 mov	 ecx, DWORD PTR _this$[ebp]
  00061	e8 00 00 00 00	 call	 ?_Getal@?$basic_string@DU?$char_traits@D@std@@V?$allocator@D@2@@std@@AAEAAV?$allocator@D@2@XZ ; std::basic_string<char,std::char_traits<char>,std::allocator<char> >::_Getal
  00066	89 45 d0	 mov	 DWORD PTR __Al$[ebp], eax

; 4515 :         const pointer _New_ptr        = _Al.allocate(_New_capacity + 1); // throws

  00069	33 c0		 xor	 eax, eax
  0006b	8b 4d dc	 mov	 ecx, DWORD PTR __New_capacity$[ebp]
  0006e	83 c1 01	 add	 ecx, 1
  00071	0f 92 c0	 setb	 al
  00074	f7 d8		 neg	 eax
  00076	0b c1		 or	 eax, ecx
  00078	50		 push	 eax
  00079	8b 4d d0	 mov	 ecx, DWORD PTR __Al$[ebp]
  0007c	e8 00 00 00 00	 call	 ?allocate@?$allocator@D@std@@QAEPADI@Z ; std::allocator<char>::allocate
  00081	89 45 c4	 mov	 DWORD PTR __New_ptr$[ebp], eax

; 4516 : 
; 4517 : #ifdef __cpp_lib_constexpr_string
; 4518 :         if (_STD is_constant_evaluated()) { // Begin the lifetimes of the objects before copying to avoid UB
; 4519 :             _Traits::assign(_Unfancy(_New_ptr), _New_capacity + 1, _Elem());
; 4520 :         }
; 4521 : #endif // __cpp_lib_constexpr_string
; 4522 :         _Mypair._Myval2._Orphan_all();

  00084	8b 4d f4	 mov	 ecx, DWORD PTR _this$[ebp]
  00087	e8 00 00 00 00	 call	 ?_Orphan_all@_Container_base12@std@@QAEXXZ ; std::_Container_base12::_Orphan_all

; 4523 :         _Mypair._Myval2._Mysize = _New_size;

  0008c	8b 45 f4	 mov	 eax, DWORD PTR _this$[ebp]
  0008f	8b 4d 08	 mov	 ecx, DWORD PTR __New_size$[ebp]
  00092	89 48 14	 mov	 DWORD PTR [eax+20], ecx

; 4524 :         _Mypair._Myval2._Myres  = _New_capacity;

  00095	8b 45 f4	 mov	 eax, DWORD PTR _this$[ebp]
  00098	8b 4d dc	 mov	 ecx, DWORD PTR __New_capacity$[ebp]
  0009b	89 48 18	 mov	 DWORD PTR [eax+24], ecx

; 4525 :         _Fn(_Unfancy(_New_ptr), _New_size, _Args...);

  0009e	8b 45 10	 mov	 eax, DWORD PTR _<_Args_0>$[ebp]
  000a1	50		 push	 eax
  000a2	8b 4d 08	 mov	 ecx, DWORD PTR __New_size$[ebp]
  000a5	51		 push	 ecx
  000a6	8b 55 c4	 mov	 edx, DWORD PTR __New_ptr$[ebp]
  000a9	52		 push	 edx
  000aa	e8 00 00 00 00	 call	 ??$_Unfancy@D@std@@YAPADPAD@Z ; std::_Unfancy<char>
  000af	83 c4 04	 add	 esp, 4
  000b2	50		 push	 eax
  000b3	8d 4d 0c	 lea	 ecx, DWORD PTR __Fn$[ebp]
  000b6	e8 00 00 00 00	 call	 ??R<lambda_9366063389c5f42a00a5088cf24e69de>@@QBE@QADIQBD@Z ; <lambda_9366063389c5f42a00a5088cf24e69de>::operator()

; 4526 :         if (_BUF_SIZE <= _Old_capacity) {

  000bb	83 7d e8 10	 cmp	 DWORD PTR __Old_capacity$[ebp], 16 ; 00000010H
  000bf	72 21		 jb	 SHORT $LN3@Reallocate

; 4527 :             _Al.deallocate(_Mypair._Myval2._Bx._Ptr, _Old_capacity + 1);

  000c1	8b 45 e8	 mov	 eax, DWORD PTR __Old_capacity$[ebp]
  000c4	83 c0 01	 add	 eax, 1
  000c7	50		 push	 eax
  000c8	8b 4d f4	 mov	 ecx, DWORD PTR _this$[ebp]
  000cb	8b 51 04	 mov	 edx, DWORD PTR [ecx+4]
  000ce	52		 push	 edx
  000cf	8b 4d d0	 mov	 ecx, DWORD PTR __Al$[ebp]
  000d2	e8 00 00 00 00	 call	 ?deallocate@?$allocator@D@std@@QAEXQADI@Z ; std::allocator<char>::deallocate

; 4528 :             _Mypair._Myval2._Bx._Ptr = _New_ptr;

  000d7	8b 45 f4	 mov	 eax, DWORD PTR _this$[ebp]
  000da	8b 4d c4	 mov	 ecx, DWORD PTR __New_ptr$[ebp]
  000dd	89 48 04	 mov	 DWORD PTR [eax+4], ecx

; 4529 :         } else {

  000e0	eb 13		 jmp	 SHORT $LN4@Reallocate
$LN3@Reallocate:

; 4530 :             _Construct_in_place(_Mypair._Myval2._Bx._Ptr, _New_ptr);

  000e2	8d 45 c4	 lea	 eax, DWORD PTR __New_ptr$[ebp]
  000e5	50		 push	 eax
  000e6	8b 4d f4	 mov	 ecx, DWORD PTR _this$[ebp]
  000e9	83 c1 04	 add	 ecx, 4
  000ec	51		 push	 ecx
  000ed	e8 00 00 00 00	 call	 ??$_Construct_in_place@PADABQAD@std@@YAXAAPADABQAD@Z ; std::_Construct_in_place<char *,char * const &>
  000f2	83 c4 08	 add	 esp, 8
$LN4@Reallocate:

; 4531 :         }
; 4532 : 
; 4533 :         return *this;

  000f5	8b 45 f4	 mov	 eax, DWORD PTR _this$[ebp]
$LN5@Reallocate:

; 4534 :     }

  000f8	52		 push	 edx
  000f9	8b cd		 mov	 ecx, ebp
  000fb	50		 push	 eax
  000fc	8d 15 00 00 00
	00		 lea	 edx, DWORD PTR $LN8@Reallocate
  00102	e8 00 00 00 00	 call	 @_RTC_CheckStackVars@8
  00107	58		 pop	 eax
  00108	5a		 pop	 edx
  00109	5f		 pop	 edi
  0010a	5e		 pop	 esi
  0010b	5b		 pop	 ebx
  0010c	8b 4d fc	 mov	 ecx, DWORD PTR __$ArrayPad$[ebp]
  0010f	33 cd		 xor	 ecx, ebp
  00111	e8 00 00 00 00	 call	 @__security_check_cookie@4
  00116	81 c4 00 01 00
	00		 add	 esp, 256		; 00000100H
  0011c	3b ec		 cmp	 ebp, esp
  0011e	e8 00 00 00 00	 call	 __RTC_CheckEsp
  00123	8b e5		 mov	 esp, ebp
  00125	5d		 pop	 ebp
  00126	c2 0c 00	 ret	 12			; 0000000cH
  00129	0f 1f 00	 npad	 3
$LN8@Reallocate:
  0012c	01 00 00 00	 DD	 1
  00130	00 00 00 00	 DD	 $LN7@Reallocate
$LN7@Reallocate:
  00134	c4 ff ff ff	 DD	 -60			; ffffffc4H
  00138	04 00 00 00	 DD	 4
  0013c	00 00 00 00	 DD	 $LN6@Reallocate
$LN6@Reallocate:
  00140	5f		 DB	 95			; 0000005fH
  00141	4e		 DB	 78			; 0000004eH
  00142	65		 DB	 101			; 00000065H
  00143	77		 DB	 119			; 00000077H
  00144	5f		 DB	 95			; 0000005fH
  00145	70		 DB	 112			; 00000070H
  00146	74		 DB	 116			; 00000074H
  00147	72		 DB	 114			; 00000072H
  00148	00		 DB	 0
??$_Reallocate_for@V<lambda_9366063389c5f42a00a5088cf24e69de>@@PBD@?$basic_string@DU?$char_traits@D@std@@V?$allocator@D@2@@std@@AAEAAV01@IV<lambda_9366063389c5f42a00a5088cf24e69de>@@PBD@Z ENDP ; std::basic_string<char,std::char_traits<char>,std::allocator<char> >::_Reallocate_for<<lambda_9366063389c5f42a00a5088cf24e69de>,char const *>
_TEXT	ENDS
; Function compile flags: /Odtp /RTCsu /ZI
; File C:\Program Files (x86)\Microsoft Visual Studio\2019\Community\VC\Tools\MSVC\14.29.30133\include\xstring
;	COMDAT ??R<lambda_9366063389c5f42a00a5088cf24e69de>@@QBE@QADIQBD@Z
_TEXT	SEGMENT
$T1 = -209						; size = 1
_this$ = -8						; size = 4
__New_ptr$ = 8						; size = 4
__Count$ = 12						; size = 4
__Ptr$ = 16						; size = 4
??R<lambda_9366063389c5f42a00a5088cf24e69de>@@QBE@QADIQBD@Z PROC ; <lambda_9366063389c5f42a00a5088cf24e69de>::operator(), COMDAT
; _this$ = ecx

; 3256 :             [](_Elem* const _New_ptr, const size_type _Count, const _Elem* const _Ptr) {

  00000	55		 push	 ebp
  00001	8b ec		 mov	 ebp, esp
  00003	81 ec d8 00 00
	00		 sub	 esp, 216		; 000000d8H
  00009	53		 push	 ebx
  0000a	56		 push	 esi
  0000b	57		 push	 edi
  0000c	51		 push	 ecx
  0000d	8d 7d e8	 lea	 edi, DWORD PTR [ebp-24]
  00010	b9 06 00 00 00	 mov	 ecx, 6
  00015	b8 cc cc cc cc	 mov	 eax, -858993460		; ccccccccH
  0001a	f3 ab		 rep stosd
  0001c	59		 pop	 ecx
  0001d	89 4d f8	 mov	 DWORD PTR _this$[ebp], ecx
  00020	b9 00 00 00 00	 mov	 ecx, OFFSET __0D019051_xstring
  00025	e8 00 00 00 00	 call	 @__CheckForDebuggerJustMyCode@4

; 3257 :                 _Traits::copy(_New_ptr, _Ptr, _Count);

  0002a	8b 45 0c	 mov	 eax, DWORD PTR __Count$[ebp]
  0002d	50		 push	 eax
  0002e	8b 4d 10	 mov	 ecx, DWORD PTR __Ptr$[ebp]
  00031	51		 push	 ecx
  00032	8b 55 08	 mov	 edx, DWORD PTR __New_ptr$[ebp]
  00035	52		 push	 edx
  00036	e8 00 00 00 00	 call	 ?copy@?$_Char_traits@DH@std@@SAPADQADQBDI@Z ; std::_Char_traits<char,int>::copy
  0003b	83 c4 0c	 add	 esp, 12			; 0000000cH

; 3258 :                 _Traits::assign(_New_ptr[_Count], _Elem());

  0003e	c6 85 2f ff ff
	ff 00		 mov	 BYTE PTR $T1[ebp], 0
  00045	8d 85 2f ff ff
	ff		 lea	 eax, DWORD PTR $T1[ebp]
  0004b	50		 push	 eax
  0004c	8b 4d 08	 mov	 ecx, DWORD PTR __New_ptr$[ebp]
  0004f	03 4d 0c	 add	 ecx, DWORD PTR __Count$[ebp]
  00052	51		 push	 ecx
  00053	e8 00 00 00 00	 call	 ?assign@?$_Narrow_char_traits@DH@std@@SAXAADABD@Z ; std::_Narrow_char_traits<char,int>::assign
  00058	83 c4 08	 add	 esp, 8

; 3259 :             },

  0005b	5f		 pop	 edi
  0005c	5e		 pop	 esi
  0005d	5b		 pop	 ebx
  0005e	81 c4 d8 00 00
	00		 add	 esp, 216		; 000000d8H
  00064	3b ec		 cmp	 ebp, esp
  00066	e8 00 00 00 00	 call	 __RTC_CheckEsp
  0006b	8b e5		 mov	 esp, ebp
  0006d	5d		 pop	 ebp
  0006e	c2 0c 00	 ret	 12			; 0000000cH
??R<lambda_9366063389c5f42a00a5088cf24e69de>@@QBE@QADIQBD@Z ENDP ; <lambda_9366063389c5f42a00a5088cf24e69de>::operator()
_TEXT	ENDS
; Function compile flags: /Odtp /RTCsu /ZI
; File C:\Program Files (x86)\Microsoft Visual Studio\2019\Community\VC\Tools\MSVC\14.29.30133\include\xmemory
;	COMDAT ??$_Destroy_in_place@PAD@std@@YAXAAPAD@Z
_TEXT	SEGMENT
__Obj$ = 8						; size = 4
??$_Destroy_in_place@PAD@std@@YAXAAPAD@Z PROC		; std::_Destroy_in_place<char *>, COMDAT

; 307  : _CONSTEXPR20_DYNALLOC void _Destroy_in_place(_Ty& _Obj) noexcept {

  00000	55		 push	 ebp
  00001	8b ec		 mov	 ebp, esp
  00003	81 ec c0 00 00
	00		 sub	 esp, 192		; 000000c0H
  00009	53		 push	 ebx
  0000a	56		 push	 esi
  0000b	57		 push	 edi
  0000c	8b fd		 mov	 edi, ebp
  0000e	33 c9		 xor	 ecx, ecx
  00010	b8 cc cc cc cc	 mov	 eax, -858993460		; ccccccccH
  00015	f3 ab		 rep stosd
  00017	b9 00 00 00 00	 mov	 ecx, OFFSET __79D216CD_xmemory
  0001c	e8 00 00 00 00	 call	 @__CheckForDebuggerJustMyCode@4

; 308  :     if constexpr (is_array_v<_Ty>) {
; 309  :         _Destroy_range(_Obj, _Obj + extent_v<_Ty>);
; 310  :     } else {
; 311  :         _Obj.~_Ty();
; 312  :     }
; 313  : }

  00021	5f		 pop	 edi
  00022	5e		 pop	 esi
  00023	5b		 pop	 ebx
  00024	81 c4 c0 00 00
	00		 add	 esp, 192		; 000000c0H
  0002a	3b ec		 cmp	 ebp, esp
  0002c	e8 00 00 00 00	 call	 __RTC_CheckEsp
  00031	8b e5		 mov	 esp, ebp
  00033	5d		 pop	 ebp
  00034	c3		 ret	 0
??$_Destroy_in_place@PAD@std@@YAXAAPAD@Z ENDP		; std::_Destroy_in_place<char *>
_TEXT	ENDS
; Function compile flags: /Odtp /RTCsu /ZI
; File C:\Program Files (x86)\Microsoft Visual Studio\2019\Community\VC\Tools\MSVC\14.29.30133\include\xstddef
;	COMDAT ??$_Unfancy@U_Container_proxy@std@@@std@@YAPAU_Container_proxy@0@PAU10@@Z
_TEXT	SEGMENT
__Ptr$ = 8						; size = 4
??$_Unfancy@U_Container_proxy@std@@@std@@YAPAU_Container_proxy@0@PAU10@@Z PROC ; std::_Unfancy<std::_Container_proxy>, COMDAT

; 288  : _NODISCARD constexpr _Ty* _Unfancy(_Ty* _Ptr) noexcept { // do nothing for plain pointers

  00000	55		 push	 ebp
  00001	8b ec		 mov	 ebp, esp
  00003	81 ec c0 00 00
	00		 sub	 esp, 192		; 000000c0H
  00009	53		 push	 ebx
  0000a	56		 push	 esi
  0000b	57		 push	 edi
  0000c	8b fd		 mov	 edi, ebp
  0000e	33 c9		 xor	 ecx, ecx
  00010	b8 cc cc cc cc	 mov	 eax, -858993460		; ccccccccH
  00015	f3 ab		 rep stosd
  00017	b9 00 00 00 00	 mov	 ecx, OFFSET __E458E21C_xstddef
  0001c	e8 00 00 00 00	 call	 @__CheckForDebuggerJustMyCode@4

; 289  :     return _Ptr;

  00021	8b 45 08	 mov	 eax, DWORD PTR __Ptr$[ebp]

; 290  : }

  00024	5f		 pop	 edi
  00025	5e		 pop	 esi
  00026	5b		 pop	 ebx
  00027	81 c4 c0 00 00
	00		 add	 esp, 192		; 000000c0H
  0002d	3b ec		 cmp	 ebp, esp
  0002f	e8 00 00 00 00	 call	 __RTC_CheckEsp
  00034	8b e5		 mov	 esp, ebp
  00036	5d		 pop	 ebp
  00037	c3		 ret	 0
??$_Unfancy@U_Container_proxy@std@@@std@@YAPAU_Container_proxy@0@PAU10@@Z ENDP ; std::_Unfancy<std::_Container_proxy>
_TEXT	ENDS
; Function compile flags: /Odtp /RTCsu /ZI
; File C:\Program Files (x86)\Microsoft Visual Studio\2019\Community\VC\Tools\MSVC\14.29.30133\include\xmemory
;	COMDAT ??$?0$$V@?$_Compressed_pair@V?$allocator@D@std@@V?$_String_val@U?$_Simple_types@D@std@@@2@$00@std@@QAE@U_Zero_then_variadic_args_t@1@@Z
_TEXT	SEGMENT
_this$ = -8						; size = 4
___formal$ = 8						; size = 1
??$?0$$V@?$_Compressed_pair@V?$allocator@D@std@@V?$_String_val@U?$_Simple_types@D@std@@@2@$00@std@@QAE@U_Zero_then_variadic_args_t@1@@Z PROC ; std::_Compressed_pair<std::allocator<char>,std::_String_val<std::_Simple_types<char> >,1>::_Compressed_pair<std::allocator<char>,std::_String_val<std::_Simple_types<char> >,1><>, COMDAT
; _this$ = ecx

; 1370 :         : _Ty1(), _Myval2(_STD forward<_Other2>(_Val2)...) {}

  00000	55		 push	 ebp
  00001	8b ec		 mov	 ebp, esp
  00003	81 ec cc 00 00
	00		 sub	 esp, 204		; 000000ccH
  00009	53		 push	 ebx
  0000a	56		 push	 esi
  0000b	57		 push	 edi
  0000c	51		 push	 ecx
  0000d	8d 7d f4	 lea	 edi, DWORD PTR [ebp-12]
  00010	b9 03 00 00 00	 mov	 ecx, 3
  00015	b8 cc cc cc cc	 mov	 eax, -858993460		; ccccccccH
  0001a	f3 ab		 rep stosd
  0001c	59		 pop	 ecx
  0001d	89 4d f8	 mov	 DWORD PTR _this$[ebp], ecx
  00020	b9 00 00 00 00	 mov	 ecx, OFFSET __79D216CD_xmemory
  00025	e8 00 00 00 00	 call	 @__CheckForDebuggerJustMyCode@4
  0002a	8b 4d f8	 mov	 ecx, DWORD PTR _this$[ebp]
  0002d	e8 00 00 00 00	 call	 ??0?$allocator@D@std@@QAE@XZ ; std::allocator<char>::allocator<char>
  00032	8b 4d f8	 mov	 ecx, DWORD PTR _this$[ebp]
  00035	e8 00 00 00 00	 call	 ??0?$_String_val@U?$_Simple_types@D@std@@@std@@QAE@XZ ; std::_String_val<std::_Simple_types<char> >::_String_val<std::_Simple_types<char> >
  0003a	8b 45 f8	 mov	 eax, DWORD PTR _this$[ebp]
  0003d	5f		 pop	 edi
  0003e	5e		 pop	 esi
  0003f	5b		 pop	 ebx
  00040	81 c4 cc 00 00
	00		 add	 esp, 204		; 000000ccH
  00046	3b ec		 cmp	 ebp, esp
  00048	e8 00 00 00 00	 call	 __RTC_CheckEsp
  0004d	8b e5		 mov	 esp, ebp
  0004f	5d		 pop	 ebp
  00050	c2 04 00	 ret	 4
??$?0$$V@?$_Compressed_pair@V?$allocator@D@std@@V?$_String_val@U?$_Simple_types@D@std@@@2@$00@std@@QAE@U_Zero_then_variadic_args_t@1@@Z ENDP ; std::_Compressed_pair<std::allocator<char>,std::_String_val<std::_Simple_types<char> >,1>::_Compressed_pair<std::allocator<char>,std::_String_val<std::_Simple_types<char> >,1><>
_TEXT	ENDS
; Function compile flags: /Odtp /RTCsu /ZI
; File C:\Program Files (x86)\Microsoft Visual Studio\2019\Community\VC\Tools\MSVC\14.29.30133\include\xmemory
;	COMDAT ??$_Alloc_proxy@V?$allocator@U_Container_proxy@std@@@std@@@_Container_base12@std@@QAEX$$QAV?$allocator@U_Container_proxy@std@@@1@@Z
_TEXT	SEGMENT
$T1 = -224						; size = 4
__New_proxy$ = -20					; size = 4
_this$ = -8						; size = 4
__Al$ = 8						; size = 4
??$_Alloc_proxy@V?$allocator@U_Container_proxy@std@@@std@@@_Container_base12@std@@QAEX$$QAV?$allocator@U_Container_proxy@std@@@1@@Z PROC ; std::_Container_base12::_Alloc_proxy<std::allocator<std::_Container_proxy> >, COMDAT
; _this$ = ecx

; 1073 :     _CONSTEXPR20_CONTAINER void _Alloc_proxy(_Alloc&& _Al) {

  00000	55		 push	 ebp
  00001	8b ec		 mov	 ebp, esp
  00003	81 ec e4 00 00
	00		 sub	 esp, 228		; 000000e4H
  00009	53		 push	 ebx
  0000a	56		 push	 esi
  0000b	57		 push	 edi
  0000c	51		 push	 ecx
  0000d	8d 7d dc	 lea	 edi, DWORD PTR [ebp-36]
  00010	b9 09 00 00 00	 mov	 ecx, 9
  00015	b8 cc cc cc cc	 mov	 eax, -858993460		; ccccccccH
  0001a	f3 ab		 rep stosd
  0001c	59		 pop	 ecx
  0001d	89 4d f8	 mov	 DWORD PTR _this$[ebp], ecx
  00020	b9 00 00 00 00	 mov	 ecx, OFFSET __79D216CD_xmemory
  00025	e8 00 00 00 00	 call	 @__CheckForDebuggerJustMyCode@4

; 1074 :         _Container_proxy* const _New_proxy = _Unfancy(_Al.allocate(1));

  0002a	6a 01		 push	 1
  0002c	8b 4d 08	 mov	 ecx, DWORD PTR __Al$[ebp]
  0002f	e8 00 00 00 00	 call	 ?allocate@?$allocator@U_Container_proxy@std@@@std@@QAEPAU_Container_proxy@2@I@Z ; std::allocator<std::_Container_proxy>::allocate
  00034	50		 push	 eax
  00035	e8 00 00 00 00	 call	 ??$_Unfancy@U_Container_proxy@std@@@std@@YAPAU_Container_proxy@0@PAU10@@Z ; std::_Unfancy<std::_Container_proxy>
  0003a	83 c4 04	 add	 esp, 4
  0003d	89 45 ec	 mov	 DWORD PTR __New_proxy$[ebp], eax

; 1075 :         _Construct_in_place(*_New_proxy, this);

  00040	8b 45 f8	 mov	 eax, DWORD PTR _this$[ebp]
  00043	89 85 20 ff ff
	ff		 mov	 DWORD PTR $T1[ebp], eax
  00049	8d 8d 20 ff ff
	ff		 lea	 ecx, DWORD PTR $T1[ebp]
  0004f	51		 push	 ecx
  00050	8b 55 ec	 mov	 edx, DWORD PTR __New_proxy$[ebp]
  00053	52		 push	 edx
  00054	e8 00 00 00 00	 call	 ??$_Construct_in_place@U_Container_proxy@std@@PAU_Container_base12@2@@std@@YAXAAU_Container_proxy@0@$$QAPAU_Container_base12@0@@Z ; std::_Construct_in_place<std::_Container_proxy,std::_Container_base12 *>
  00059	83 c4 08	 add	 esp, 8

; 1076 :         _Myproxy            = _New_proxy;

  0005c	8b 45 f8	 mov	 eax, DWORD PTR _this$[ebp]
  0005f	8b 4d ec	 mov	 ecx, DWORD PTR __New_proxy$[ebp]
  00062	89 08		 mov	 DWORD PTR [eax], ecx

; 1077 :         _New_proxy->_Mycont = this;

  00064	8b 45 ec	 mov	 eax, DWORD PTR __New_proxy$[ebp]
  00067	8b 4d f8	 mov	 ecx, DWORD PTR _this$[ebp]
  0006a	89 08		 mov	 DWORD PTR [eax], ecx

; 1078 :     }

  0006c	5f		 pop	 edi
  0006d	5e		 pop	 esi
  0006e	5b		 pop	 ebx
  0006f	81 c4 e4 00 00
	00		 add	 esp, 228		; 000000e4H
  00075	3b ec		 cmp	 ebp, esp
  00077	e8 00 00 00 00	 call	 __RTC_CheckEsp
  0007c	8b e5		 mov	 esp, ebp
  0007e	5d		 pop	 ebp
  0007f	c2 04 00	 ret	 4
??$_Alloc_proxy@V?$allocator@U_Container_proxy@std@@@std@@@_Container_base12@std@@QAEX$$QAV?$allocator@U_Container_proxy@std@@@1@@Z ENDP ; std::_Container_base12::_Alloc_proxy<std::allocator<std::_Container_proxy> >
_TEXT	ENDS
; Function compile flags: /Odtp /RTCsu /ZI
; File C:\Program Files (x86)\Microsoft Visual Studio\2019\Community\VC\Tools\MSVC\14.29.30133\include\xmemory
;	COMDAT ??$?0D@?$allocator@U_Container_proxy@std@@@std@@QAE@ABV?$allocator@D@1@@Z
_TEXT	SEGMENT
_this$ = -8						; size = 4
___formal$ = 8						; size = 4
??$?0D@?$allocator@U_Container_proxy@std@@@std@@QAE@ABV?$allocator@D@1@@Z PROC ; std::allocator<std::_Container_proxy>::allocator<std::_Container_proxy><char>, COMDAT
; _this$ = ecx

; 829  :     constexpr allocator(const allocator<_Other>&) noexcept {}

  00000	55		 push	 ebp
  00001	8b ec		 mov	 ebp, esp
  00003	81 ec cc 00 00
	00		 sub	 esp, 204		; 000000ccH
  00009	53		 push	 ebx
  0000a	56		 push	 esi
  0000b	57		 push	 edi
  0000c	51		 push	 ecx
  0000d	8d 7d f4	 lea	 edi, DWORD PTR [ebp-12]
  00010	b9 03 00 00 00	 mov	 ecx, 3
  00015	b8 cc cc cc cc	 mov	 eax, -858993460		; ccccccccH
  0001a	f3 ab		 rep stosd
  0001c	59		 pop	 ecx
  0001d	89 4d f8	 mov	 DWORD PTR _this$[ebp], ecx
  00020	b9 00 00 00 00	 mov	 ecx, OFFSET __79D216CD_xmemory
  00025	e8 00 00 00 00	 call	 @__CheckForDebuggerJustMyCode@4
  0002a	8b 45 f8	 mov	 eax, DWORD PTR _this$[ebp]
  0002d	5f		 pop	 edi
  0002e	5e		 pop	 esi
  0002f	5b		 pop	 ebx
  00030	81 c4 cc 00 00
	00		 add	 esp, 204		; 000000ccH
  00036	3b ec		 cmp	 ebp, esp
  00038	e8 00 00 00 00	 call	 __RTC_CheckEsp
  0003d	8b e5		 mov	 esp, ebp
  0003f	5d		 pop	 ebp
  00040	c2 04 00	 ret	 4
??$?0D@?$allocator@U_Container_proxy@std@@@std@@QAE@ABV?$allocator@D@1@@Z ENDP ; std::allocator<std::_Container_proxy>::allocator<std::_Container_proxy><char>
_TEXT	ENDS
; Function compile flags: /Odtp /RTCsu /ZI
; File C:\Program Files (x86)\Microsoft Visual Studio\2019\Community\VC\Tools\MSVC\14.29.30133\include\xmemory
;	COMDAT ??$_Delete_plain_internal@V?$allocator@U_Container_proxy@std@@@std@@@std@@YAXAAV?$allocator@U_Container_proxy@std@@@0@QAU_Container_proxy@0@@Z
_TEXT	SEGMENT
__Al$ = 8						; size = 4
__Ptr$ = 12						; size = 4
??$_Delete_plain_internal@V?$allocator@U_Container_proxy@std@@@std@@@std@@YAXAAV?$allocator@U_Container_proxy@std@@@0@QAU_Container_proxy@0@@Z PROC ; std::_Delete_plain_internal<std::allocator<std::_Container_proxy> >, COMDAT

; 998  : _CONSTEXPR20_DYNALLOC void _Delete_plain_internal(_Alloc& _Al, typename _Alloc::value_type* const _Ptr) noexcept {

  00000	55		 push	 ebp
  00001	8b ec		 mov	 ebp, esp
  00003	81 ec c0 00 00
	00		 sub	 esp, 192		; 000000c0H
  00009	53		 push	 ebx
  0000a	56		 push	 esi
  0000b	57		 push	 edi
  0000c	8b fd		 mov	 edi, ebp
  0000e	33 c9		 xor	 ecx, ecx
  00010	b8 cc cc cc cc	 mov	 eax, -858993460		; ccccccccH
  00015	f3 ab		 rep stosd
  00017	b9 00 00 00 00	 mov	 ecx, OFFSET __79D216CD_xmemory
  0001c	e8 00 00 00 00	 call	 @__CheckForDebuggerJustMyCode@4

; 999  :     // destroy *_Ptr in place, then deallocate _Ptr using _Al; used for internal container types the user didn't name
; 1000 :     using _Ty = typename _Alloc::value_type;
; 1001 :     _Ptr->~_Ty();
; 1002 :     _Deallocate_plain(_Al, _Ptr);

  00021	8b 45 0c	 mov	 eax, DWORD PTR __Ptr$[ebp]
  00024	50		 push	 eax
  00025	8b 4d 08	 mov	 ecx, DWORD PTR __Al$[ebp]
  00028	51		 push	 ecx
  00029	e8 00 00 00 00	 call	 ??$_Deallocate_plain@V?$allocator@U_Container_proxy@std@@@std@@@std@@YAXAAV?$allocator@U_Container_proxy@std@@@0@QAU_Container_proxy@0@@Z ; std::_Deallocate_plain<std::allocator<std::_Container_proxy> >
  0002e	83 c4 08	 add	 esp, 8

; 1003 : }

  00031	5f		 pop	 edi
  00032	5e		 pop	 esi
  00033	5b		 pop	 ebx
  00034	81 c4 c0 00 00
	00		 add	 esp, 192		; 000000c0H
  0003a	3b ec		 cmp	 ebp, esp
  0003c	e8 00 00 00 00	 call	 __RTC_CheckEsp
  00041	8b e5		 mov	 esp, ebp
  00043	5d		 pop	 ebp
  00044	c3		 ret	 0
??$_Delete_plain_internal@V?$allocator@U_Container_proxy@std@@@std@@@std@@YAXAAV?$allocator@U_Container_proxy@std@@@0@QAU_Container_proxy@0@@Z ENDP ; std::_Delete_plain_internal<std::allocator<std::_Container_proxy> >
_TEXT	ENDS
; Function compile flags: /Odtp /RTCsu /ZI
; File C:\Program Files (x86)\Microsoft Visual Studio\2019\Community\VC\Tools\MSVC\14.29.30133\include\xmemory
;	COMDAT ?allocate@?$allocator@U_Container_proxy@std@@@std@@QAEPAU_Container_proxy@2@I@Z
_TEXT	SEGMENT
_this$ = -8						; size = 4
__Count$ = 8						; size = 4
?allocate@?$allocator@U_Container_proxy@std@@@std@@QAEPAU_Container_proxy@2@I@Z PROC ; std::allocator<std::_Container_proxy>::allocate, COMDAT
; _this$ = ecx

; 838  :     _NODISCARD _CONSTEXPR20_DYNALLOC __declspec(allocator) _Ty* allocate(_CRT_GUARDOVERFLOW const size_t _Count) {

  00000	55		 push	 ebp
  00001	8b ec		 mov	 ebp, esp
  00003	81 ec cc 00 00
	00		 sub	 esp, 204		; 000000ccH
  00009	53		 push	 ebx
  0000a	56		 push	 esi
  0000b	57		 push	 edi
  0000c	51		 push	 ecx
  0000d	8d 7d f4	 lea	 edi, DWORD PTR [ebp-12]
  00010	b9 03 00 00 00	 mov	 ecx, 3
  00015	b8 cc cc cc cc	 mov	 eax, -858993460		; ccccccccH
  0001a	f3 ab		 rep stosd
  0001c	59		 pop	 ecx
  0001d	89 4d f8	 mov	 DWORD PTR _this$[ebp], ecx
  00020	b9 00 00 00 00	 mov	 ecx, OFFSET __79D216CD_xmemory
  00025	e8 00 00 00 00	 call	 @__CheckForDebuggerJustMyCode@4

; 839  :         return static_cast<_Ty*>(_Allocate<_New_alignof<_Ty>>(_Get_size_of_n<sizeof(_Ty)>(_Count)));

  0002a	8b 45 08	 mov	 eax, DWORD PTR __Count$[ebp]
  0002d	50		 push	 eax
  0002e	e8 00 00 00 00	 call	 ??$_Get_size_of_n@$07@std@@YAII@Z ; std::_Get_size_of_n<8>
  00033	83 c4 04	 add	 esp, 4
  00036	50		 push	 eax
  00037	e8 00 00 00 00	 call	 ??$_Allocate@$07U_Default_allocate_traits@std@@$0A@@std@@YAPAXI@Z ; std::_Allocate<8,std::_Default_allocate_traits,0>
  0003c	83 c4 04	 add	 esp, 4

; 840  :     }

  0003f	5f		 pop	 edi
  00040	5e		 pop	 esi
  00041	5b		 pop	 ebx
  00042	81 c4 cc 00 00
	00		 add	 esp, 204		; 000000ccH
  00048	3b ec		 cmp	 ebp, esp
  0004a	e8 00 00 00 00	 call	 __RTC_CheckEsp
  0004f	8b e5		 mov	 esp, ebp
  00051	5d		 pop	 ebp
  00052	c2 04 00	 ret	 4
?allocate@?$allocator@U_Container_proxy@std@@@std@@QAEPAU_Container_proxy@2@I@Z ENDP ; std::allocator<std::_Container_proxy>::allocate
_TEXT	ENDS
; Function compile flags: /Odtp /RTCsu /ZI
; File C:\Program Files (x86)\Microsoft Visual Studio\2019\Community\VC\Tools\MSVC\14.29.30133\include\utility
;	COMDAT ??$min@I@std@@YAABIABI0@Z
_TEXT	SEGMENT
tv65 = -208						; size = 4
$T1 = -200						; size = 4
__Left$ = 8						; size = 4
__Right$ = 12						; size = 4
??$min@I@std@@YAABIABI0@Z PROC				; std::min<unsigned int>, COMDAT

; 66   :     const _Ty& _Left, const _Ty& _Right) noexcept(noexcept(_Right < _Left)) /* strengthened */ {

  00000	55		 push	 ebp
  00001	8b ec		 mov	 ebp, esp
  00003	81 ec d0 00 00
	00		 sub	 esp, 208		; 000000d0H
  00009	53		 push	 ebx
  0000a	56		 push	 esi
  0000b	57		 push	 edi
  0000c	8d 7d f0	 lea	 edi, DWORD PTR [ebp-16]
  0000f	b9 04 00 00 00	 mov	 ecx, 4
  00014	b8 cc cc cc cc	 mov	 eax, -858993460		; ccccccccH
  00019	f3 ab		 rep stosd
  0001b	b9 00 00 00 00	 mov	 ecx, OFFSET __1347750E_utility
  00020	e8 00 00 00 00	 call	 @__CheckForDebuggerJustMyCode@4

; 67   :     // return smaller of _Left and _Right
; 68   :     return _Right < _Left ? _Right : _Left;

  00025	8b 45 0c	 mov	 eax, DWORD PTR __Right$[ebp]
  00028	8b 4d 08	 mov	 ecx, DWORD PTR __Left$[ebp]
  0002b	8b 10		 mov	 edx, DWORD PTR [eax]
  0002d	3b 11		 cmp	 edx, DWORD PTR [ecx]
  0002f	73 0b		 jae	 SHORT $LN3@min
  00031	8b 45 0c	 mov	 eax, DWORD PTR __Right$[ebp]
  00034	89 85 30 ff ff
	ff		 mov	 DWORD PTR tv65[ebp], eax
  0003a	eb 09		 jmp	 SHORT $LN4@min
$LN3@min:
  0003c	8b 4d 08	 mov	 ecx, DWORD PTR __Left$[ebp]
  0003f	89 8d 30 ff ff
	ff		 mov	 DWORD PTR tv65[ebp], ecx
$LN4@min:
  00045	8b 95 30 ff ff
	ff		 mov	 edx, DWORD PTR tv65[ebp]
  0004b	89 95 38 ff ff
	ff		 mov	 DWORD PTR $T1[ebp], edx
  00051	8b 85 38 ff ff
	ff		 mov	 eax, DWORD PTR $T1[ebp]

; 69   : }

  00057	5f		 pop	 edi
  00058	5e		 pop	 esi
  00059	5b		 pop	 ebx
  0005a	81 c4 d0 00 00
	00		 add	 esp, 208		; 000000d0H
  00060	3b ec		 cmp	 ebp, esp
  00062	e8 00 00 00 00	 call	 __RTC_CheckEsp
  00067	8b e5		 mov	 esp, ebp
  00069	5d		 pop	 ebp
  0006a	c3		 ret	 0
??$min@I@std@@YAABIABI0@Z ENDP				; std::min<unsigned int>
_TEXT	ENDS
; Function compile flags: /Odtp /RTCsu /ZI
; File C:\Program Files (x86)\Microsoft Visual Studio\2019\Community\VC\Tools\MSVC\14.29.30133\include\ostream
;	COMDAT ??Bsentry@?$basic_ostream@DU?$char_traits@D@std@@@std@@QBE_NXZ
_TEXT	SEGMENT
_this$ = -8						; size = 4
??Bsentry@?$basic_ostream@DU?$char_traits@D@std@@@std@@QBE_NXZ PROC ; std::basic_ostream<char,std::char_traits<char> >::sentry::operator bool, COMDAT
; _this$ = ecx

; 124  :         explicit __CLR_OR_THIS_CALL operator bool() const {

  00000	55		 push	 ebp
  00001	8b ec		 mov	 ebp, esp
  00003	81 ec cc 00 00
	00		 sub	 esp, 204		; 000000ccH
  00009	53		 push	 ebx
  0000a	56		 push	 esi
  0000b	57		 push	 edi
  0000c	51		 push	 ecx
  0000d	8d 7d f4	 lea	 edi, DWORD PTR [ebp-12]
  00010	b9 03 00 00 00	 mov	 ecx, 3
  00015	b8 cc cc cc cc	 mov	 eax, -858993460		; ccccccccH
  0001a	f3 ab		 rep stosd
  0001c	59		 pop	 ecx
  0001d	89 4d f8	 mov	 DWORD PTR _this$[ebp], ecx
  00020	b9 00 00 00 00	 mov	 ecx, OFFSET __C12F3EA4_ostream
  00025	e8 00 00 00 00	 call	 @__CheckForDebuggerJustMyCode@4

; 125  :             return _Ok;

  0002a	8b 45 f8	 mov	 eax, DWORD PTR _this$[ebp]
  0002d	8a 40 04	 mov	 al, BYTE PTR [eax+4]

; 126  :         }

  00030	5f		 pop	 edi
  00031	5e		 pop	 esi
  00032	5b		 pop	 ebx
  00033	81 c4 cc 00 00
	00		 add	 esp, 204		; 000000ccH
  00039	3b ec		 cmp	 ebp, esp
  0003b	e8 00 00 00 00	 call	 __RTC_CheckEsp
  00040	8b e5		 mov	 esp, ebp
  00042	5d		 pop	 ebp
  00043	c3		 ret	 0
??Bsentry@?$basic_ostream@DU?$char_traits@D@std@@@std@@QBE_NXZ ENDP ; std::basic_ostream<char,std::char_traits<char> >::sentry::operator bool
_TEXT	ENDS
; Function compile flags: /Odtp /RTCsu /ZI
; File C:\Program Files (x86)\Microsoft Visual Studio\2019\Community\VC\Tools\MSVC\14.29.30133\include\ostream
;	COMDAT ??1sentry@?$basic_ostream@DU?$char_traits@D@std@@@std@@QAE@XZ
_TEXT	SEGMENT
tv72 = -229						; size = 1
__Zero_uncaught_exceptions$ = -29			; size = 1
_this$ = -20						; size = 4
__$EHRec$ = -12						; size = 12
??1sentry@?$basic_ostream@DU?$char_traits@D@std@@@std@@QAE@XZ PROC ; std::basic_ostream<char,std::char_traits<char> >::sentry::~sentry, COMDAT
; _this$ = ecx

; 109  :         __CLR_OR_THIS_CALL ~sentry() noexcept {

  00000	55		 push	 ebp
  00001	8b ec		 mov	 ebp, esp
  00003	6a ff		 push	 -1
  00005	68 00 00 00 00	 push	 __ehhandler$??1sentry@?$basic_ostream@DU?$char_traits@D@std@@@std@@QAE@XZ
  0000a	64 a1 00 00 00
	00		 mov	 eax, DWORD PTR fs:0
  00010	50		 push	 eax
  00011	81 ec dc 00 00
	00		 sub	 esp, 220		; 000000dcH
  00017	53		 push	 ebx
  00018	56		 push	 esi
  00019	57		 push	 edi
  0001a	51		 push	 ecx
  0001b	8d 7d d8	 lea	 edi, DWORD PTR [ebp-40]
  0001e	b9 07 00 00 00	 mov	 ecx, 7
  00023	b8 cc cc cc cc	 mov	 eax, -858993460		; ccccccccH
  00028	f3 ab		 rep stosd
  0002a	59		 pop	 ecx
  0002b	a1 00 00 00 00	 mov	 eax, DWORD PTR ___security_cookie
  00030	33 c5		 xor	 eax, ebp
  00032	50		 push	 eax
  00033	8d 45 f4	 lea	 eax, DWORD PTR __$EHRec$[ebp]
  00036	64 a3 00 00 00
	00		 mov	 DWORD PTR fs:0, eax
  0003c	89 4d ec	 mov	 DWORD PTR _this$[ebp], ecx
  0003f	b9 00 00 00 00	 mov	 ecx, OFFSET __C12F3EA4_ostream
  00044	e8 00 00 00 00	 call	 @__CheckForDebuggerJustMyCode@4

; 110  : #if !_HAS_EXCEPTIONS
; 111  :             const bool _Zero_uncaught_exceptions = true;
; 112  : #elif _HAS_DEPRECATED_UNCAUGHT_EXCEPTION
; 113  :             const bool _Zero_uncaught_exceptions = !_STD uncaught_exception(); // TRANSITION, ArchivedOS-12000909

  00049	e8 00 00 00 00	 call	 ?uncaught_exception@std@@YA_NXZ ; std::uncaught_exception
  0004e	0f b6 c0	 movzx	 eax, al
  00051	85 c0		 test	 eax, eax
  00053	75 09		 jne	 SHORT $LN4@sentry
  00055	c6 85 1b ff ff
	ff 01		 mov	 BYTE PTR tv72[ebp], 1
  0005c	eb 07		 jmp	 SHORT $LN5@sentry
$LN4@sentry:
  0005e	c6 85 1b ff ff
	ff 00		 mov	 BYTE PTR tv72[ebp], 0
$LN5@sentry:
  00065	8a 8d 1b ff ff
	ff		 mov	 cl, BYTE PTR tv72[ebp]
  0006b	88 4d e3	 mov	 BYTE PTR __Zero_uncaught_exceptions$[ebp], cl

; 114  : #else // ^^^ _HAS_DEPRECATED_UNCAUGHT_EXCEPTION / !_HAS_DEPRECATED_UNCAUGHT_EXCEPTION vvv
; 115  :             const bool _Zero_uncaught_exceptions = _STD uncaught_exceptions() == 0;
; 116  : #endif // !_HAS_DEPRECATED_UNCAUGHT_EXCEPTION
; 117  : 
; 118  :             if (_Zero_uncaught_exceptions) {

  0006e	0f b6 45 e3	 movzx	 eax, BYTE PTR __Zero_uncaught_exceptions$[ebp]
  00072	85 c0		 test	 eax, eax
  00074	74 14		 je	 SHORT $LN1@sentry

; 119  :                 this->_Myostr._Osfx();

  00076	8b f4		 mov	 esi, esp
  00078	8b 45 ec	 mov	 eax, DWORD PTR _this$[ebp]
  0007b	8b 08		 mov	 ecx, DWORD PTR [eax]
  0007d	ff 15 00 00 00
	00		 call	 DWORD PTR __imp_?_Osfx@?$basic_ostream@DU?$char_traits@D@std@@@std@@QAEXXZ
  00083	3b f4		 cmp	 esi, esp
  00085	e8 00 00 00 00	 call	 __RTC_CheckEsp
$LN1@sentry:

; 120  :             }
; 121  :         }

  0008a	8b 4d ec	 mov	 ecx, DWORD PTR _this$[ebp]
  0008d	e8 00 00 00 00	 call	 ??1_Sentry_base@?$basic_ostream@DU?$char_traits@D@std@@@std@@QAE@XZ ; std::basic_ostream<char,std::char_traits<char> >::_Sentry_base::~_Sentry_base
  00092	8b 4d f4	 mov	 ecx, DWORD PTR __$EHRec$[ebp]
  00095	64 89 0d 00 00
	00 00		 mov	 DWORD PTR fs:0, ecx
  0009c	59		 pop	 ecx
  0009d	5f		 pop	 edi
  0009e	5e		 pop	 esi
  0009f	5b		 pop	 ebx
  000a0	81 c4 e8 00 00
	00		 add	 esp, 232		; 000000e8H
  000a6	3b ec		 cmp	 ebp, esp
  000a8	e8 00 00 00 00	 call	 __RTC_CheckEsp
  000ad	8b e5		 mov	 esp, ebp
  000af	5d		 pop	 ebp
  000b0	c3		 ret	 0
  000b1	cc		 int	 3
  000b2	cc		 int	 3
  000b3	cc		 int	 3
  000b4	cc		 int	 3
  000b5	cc		 int	 3
_TEXT	ENDS
;	COMDAT text$x
text$x	SEGMENT
__ehhandler$??1sentry@?$basic_ostream@DU?$char_traits@D@std@@@std@@QAE@XZ:
  00000	90		 npad	 1
  00001	90		 npad	 1
  00002	8b 54 24 08	 mov	 edx, DWORD PTR [esp+8]
  00006	8d 42 0c	 lea	 eax, DWORD PTR [edx+12]
  00009	8b 8a 14 ff ff
	ff		 mov	 ecx, DWORD PTR [edx-236]
  0000f	33 c8		 xor	 ecx, eax
  00011	e8 00 00 00 00	 call	 @__security_check_cookie@4
  00016	b8 00 00 00 00	 mov	 eax, OFFSET __ehfuncinfo$??1sentry@?$basic_ostream@DU?$char_traits@D@std@@@std@@QAE@XZ
  0001b	e9 00 00 00 00	 jmp	 ___CxxFrameHandler3
text$x	ENDS
??1sentry@?$basic_ostream@DU?$char_traits@D@std@@@std@@QAE@XZ ENDP ; std::basic_ostream<char,std::char_traits<char> >::sentry::~sentry
; Function compile flags: /Odtp /RTCsu /ZI
; File C:\Program Files (x86)\Microsoft Visual Studio\2019\Community\VC\Tools\MSVC\14.29.30133\include\ostream
;	COMDAT ??0sentry@?$basic_ostream@DU?$char_traits@D@std@@@std@@QAE@AAV12@@Z
_TEXT	SEGMENT
__Tied$ = -32						; size = 4
_this$ = -20						; size = 4
__$EHRec$ = -12						; size = 12
__Ostr$ = 8						; size = 4
??0sentry@?$basic_ostream@DU?$char_traits@D@std@@@std@@QAE@AAV12@@Z PROC ; std::basic_ostream<char,std::char_traits<char> >::sentry::sentry, COMDAT
; _this$ = ecx

; 92   :         explicit __CLR_OR_THIS_CALL sentry(basic_ostream& _Ostr) : _Sentry_base(_Ostr) {

  00000	55		 push	 ebp
  00001	8b ec		 mov	 ebp, esp
  00003	6a ff		 push	 -1
  00005	68 00 00 00 00	 push	 __ehhandler$??0sentry@?$basic_ostream@DU?$char_traits@D@std@@@std@@QAE@AAV12@@Z
  0000a	64 a1 00 00 00
	00		 mov	 eax, DWORD PTR fs:0
  00010	50		 push	 eax
  00011	81 ec d8 00 00
	00		 sub	 esp, 216		; 000000d8H
  00017	53		 push	 ebx
  00018	56		 push	 esi
  00019	57		 push	 edi
  0001a	51		 push	 ecx
  0001b	8d 7d dc	 lea	 edi, DWORD PTR [ebp-36]
  0001e	b9 06 00 00 00	 mov	 ecx, 6
  00023	b8 cc cc cc cc	 mov	 eax, -858993460		; ccccccccH
  00028	f3 ab		 rep stosd
  0002a	59		 pop	 ecx
  0002b	a1 00 00 00 00	 mov	 eax, DWORD PTR ___security_cookie
  00030	33 c5		 xor	 eax, ebp
  00032	50		 push	 eax
  00033	8d 45 f4	 lea	 eax, DWORD PTR __$EHRec$[ebp]
  00036	64 a3 00 00 00
	00		 mov	 DWORD PTR fs:0, eax
  0003c	89 4d ec	 mov	 DWORD PTR _this$[ebp], ecx
  0003f	b9 00 00 00 00	 mov	 ecx, OFFSET __C12F3EA4_ostream
  00044	e8 00 00 00 00	 call	 @__CheckForDebuggerJustMyCode@4
  00049	8b 45 08	 mov	 eax, DWORD PTR __Ostr$[ebp]
  0004c	50		 push	 eax
  0004d	8b 4d ec	 mov	 ecx, DWORD PTR _this$[ebp]
  00050	e8 00 00 00 00	 call	 ??0_Sentry_base@?$basic_ostream@DU?$char_traits@D@std@@@std@@QAE@AAV12@@Z ; std::basic_ostream<char,std::char_traits<char> >::_Sentry_base::_Sentry_base
  00055	c7 45 fc 00 00
	00 00		 mov	 DWORD PTR __$EHRec$[ebp+8], 0

; 93   :             if (!_Ostr.good()) {

  0005c	8b 45 08	 mov	 eax, DWORD PTR __Ostr$[ebp]
  0005f	8b 08		 mov	 ecx, DWORD PTR [eax]
  00061	8b 55 08	 mov	 edx, DWORD PTR __Ostr$[ebp]
  00064	03 51 04	 add	 edx, DWORD PTR [ecx+4]
  00067	8b f4		 mov	 esi, esp
  00069	8b ca		 mov	 ecx, edx
  0006b	ff 15 00 00 00
	00		 call	 DWORD PTR __imp_?good@ios_base@std@@QBE_NXZ
  00071	3b f4		 cmp	 esi, esp
  00073	e8 00 00 00 00	 call	 __RTC_CheckEsp
  00078	0f b6 c0	 movzx	 eax, al
  0007b	85 c0		 test	 eax, eax
  0007d	75 09		 jne	 SHORT $LN2@sentry

; 94   :                 _Ok = false;

  0007f	8b 45 ec	 mov	 eax, DWORD PTR _this$[ebp]
  00082	c6 40 04 00	 mov	 BYTE PTR [eax+4], 0

; 95   :                 return;

  00086	eb 6a		 jmp	 SHORT $LN1@sentry
$LN2@sentry:

; 96   :             }
; 97   : 
; 98   :             const auto _Tied = _Ostr.tie();

  00088	8b 45 08	 mov	 eax, DWORD PTR __Ostr$[ebp]
  0008b	8b 08		 mov	 ecx, DWORD PTR [eax]
  0008d	8b 55 08	 mov	 edx, DWORD PTR __Ostr$[ebp]
  00090	03 51 04	 add	 edx, DWORD PTR [ecx+4]
  00093	8b f4		 mov	 esi, esp
  00095	8b ca		 mov	 ecx, edx
  00097	ff 15 00 00 00
	00		 call	 DWORD PTR __imp_?tie@?$basic_ios@DU?$char_traits@D@std@@@std@@QBEPAV?$basic_ostream@DU?$char_traits@D@std@@@2@XZ
  0009d	3b f4		 cmp	 esi, esp
  0009f	e8 00 00 00 00	 call	 __RTC_CheckEsp
  000a4	89 45 e0	 mov	 DWORD PTR __Tied$[ebp], eax

; 99   :             if (!_Tied || _Tied == &_Ostr) {

  000a7	83 7d e0 00	 cmp	 DWORD PTR __Tied$[ebp], 0
  000ab	74 08		 je	 SHORT $LN4@sentry
  000ad	8b 45 e0	 mov	 eax, DWORD PTR __Tied$[ebp]
  000b0	3b 45 08	 cmp	 eax, DWORD PTR __Ostr$[ebp]
  000b3	75 09		 jne	 SHORT $LN3@sentry
$LN4@sentry:

; 100  :                 _Ok = true;

  000b5	8b 45 ec	 mov	 eax, DWORD PTR _this$[ebp]
  000b8	c6 40 04 01	 mov	 BYTE PTR [eax+4], 1

; 101  :                 return;

  000bc	eb 34		 jmp	 SHORT $LN1@sentry
$LN3@sentry:

; 102  :             }
; 103  : 
; 104  :             _Tied->flush();

  000be	8b f4		 mov	 esi, esp
  000c0	8b 4d e0	 mov	 ecx, DWORD PTR __Tied$[ebp]
  000c3	ff 15 00 00 00
	00		 call	 DWORD PTR __imp_?flush@?$basic_ostream@DU?$char_traits@D@std@@@std@@QAEAAV12@XZ
  000c9	3b f4		 cmp	 esi, esp
  000cb	e8 00 00 00 00	 call	 __RTC_CheckEsp

; 105  :             _Ok = _Ostr.good(); // store test only after flushing tie

  000d0	8b 45 08	 mov	 eax, DWORD PTR __Ostr$[ebp]
  000d3	8b 08		 mov	 ecx, DWORD PTR [eax]
  000d5	8b 55 08	 mov	 edx, DWORD PTR __Ostr$[ebp]
  000d8	03 51 04	 add	 edx, DWORD PTR [ecx+4]
  000db	8b f4		 mov	 esi, esp
  000dd	8b ca		 mov	 ecx, edx
  000df	ff 15 00 00 00
	00		 call	 DWORD PTR __imp_?good@ios_base@std@@QBE_NXZ
  000e5	3b f4		 cmp	 esi, esp
  000e7	e8 00 00 00 00	 call	 __RTC_CheckEsp
  000ec	8b 4d ec	 mov	 ecx, DWORD PTR _this$[ebp]
  000ef	88 41 04	 mov	 BYTE PTR [ecx+4], al
$LN1@sentry:

; 106  :         }

  000f2	c7 45 fc ff ff
	ff ff		 mov	 DWORD PTR __$EHRec$[ebp+8], -1
  000f9	8b 45 ec	 mov	 eax, DWORD PTR _this$[ebp]
  000fc	8b 4d f4	 mov	 ecx, DWORD PTR __$EHRec$[ebp]
  000ff	64 89 0d 00 00
	00 00		 mov	 DWORD PTR fs:0, ecx
  00106	59		 pop	 ecx
  00107	5f		 pop	 edi
  00108	5e		 pop	 esi
  00109	5b		 pop	 ebx
  0010a	81 c4 e4 00 00
	00		 add	 esp, 228		; 000000e4H
  00110	3b ec		 cmp	 ebp, esp
  00112	e8 00 00 00 00	 call	 __RTC_CheckEsp
  00117	8b e5		 mov	 esp, ebp
  00119	5d		 pop	 ebp
  0011a	c2 04 00	 ret	 4
_TEXT	ENDS
;	COMDAT text$x
text$x	SEGMENT
__unwindfunclet$??0sentry@?$basic_ostream@DU?$char_traits@D@std@@@std@@QAE@AAV12@@Z$0:
  00000	8b 4d ec	 mov	 ecx, DWORD PTR _this$[ebp]
  00003	e9 00 00 00 00	 jmp	 ??1_Sentry_base@?$basic_ostream@DU?$char_traits@D@std@@@std@@QAE@XZ ; std::basic_ostream<char,std::char_traits<char> >::_Sentry_base::~_Sentry_base
  00008	cc		 int	 3
  00009	cc		 int	 3
  0000a	cc		 int	 3
  0000b	cc		 int	 3
  0000c	cc		 int	 3
__ehhandler$??0sentry@?$basic_ostream@DU?$char_traits@D@std@@@std@@QAE@AAV12@@Z:
  0000d	90		 npad	 1
  0000e	90		 npad	 1
  0000f	8b 54 24 08	 mov	 edx, DWORD PTR [esp+8]
  00013	8d 42 0c	 lea	 eax, DWORD PTR [edx+12]
  00016	8b 8a 18 ff ff
	ff		 mov	 ecx, DWORD PTR [edx-232]
  0001c	33 c8		 xor	 ecx, eax
  0001e	e8 00 00 00 00	 call	 @__security_check_cookie@4
  00023	b8 00 00 00 00	 mov	 eax, OFFSET __ehfuncinfo$??0sentry@?$basic_ostream@DU?$char_traits@D@std@@@std@@QAE@AAV12@@Z
  00028	e9 00 00 00 00	 jmp	 ___CxxFrameHandler3
text$x	ENDS
??0sentry@?$basic_ostream@DU?$char_traits@D@std@@@std@@QAE@AAV12@@Z ENDP ; std::basic_ostream<char,std::char_traits<char> >::sentry::sentry
; Function compile flags: /Odtp /RTCsu /ZI
; File C:\Program Files (x86)\Microsoft Visual Studio\2019\Community\VC\Tools\MSVC\14.29.30133\include\ostream
;	COMDAT ??1_Sentry_base@?$basic_ostream@DU?$char_traits@D@std@@@std@@QAE@XZ
_TEXT	SEGMENT
tv72 = -232						; size = 4
__Rdbuf$ = -32						; size = 4
_this$ = -20						; size = 4
__$EHRec$ = -12						; size = 12
??1_Sentry_base@?$basic_ostream@DU?$char_traits@D@std@@@std@@QAE@XZ PROC ; std::basic_ostream<char,std::char_traits<char> >::_Sentry_base::~_Sentry_base, COMDAT
; _this$ = ecx

; 78   :         __CLR_OR_THIS_CALL ~_Sentry_base() noexcept { // destroy after unlocking

  00000	55		 push	 ebp
  00001	8b ec		 mov	 ebp, esp
  00003	6a ff		 push	 -1
  00005	68 00 00 00 00	 push	 __ehhandler$??1_Sentry_base@?$basic_ostream@DU?$char_traits@D@std@@@std@@QAE@XZ
  0000a	64 a1 00 00 00
	00		 mov	 eax, DWORD PTR fs:0
  00010	50		 push	 eax
  00011	81 ec dc 00 00
	00		 sub	 esp, 220		; 000000dcH
  00017	53		 push	 ebx
  00018	56		 push	 esi
  00019	57		 push	 edi
  0001a	51		 push	 ecx
  0001b	8d 7d d8	 lea	 edi, DWORD PTR [ebp-40]
  0001e	b9 07 00 00 00	 mov	 ecx, 7
  00023	b8 cc cc cc cc	 mov	 eax, -858993460		; ccccccccH
  00028	f3 ab		 rep stosd
  0002a	59		 pop	 ecx
  0002b	a1 00 00 00 00	 mov	 eax, DWORD PTR ___security_cookie
  00030	33 c5		 xor	 eax, ebp
  00032	50		 push	 eax
  00033	8d 45 f4	 lea	 eax, DWORD PTR __$EHRec$[ebp]
  00036	64 a3 00 00 00
	00		 mov	 DWORD PTR fs:0, eax
  0003c	89 4d ec	 mov	 DWORD PTR _this$[ebp], ecx
  0003f	b9 00 00 00 00	 mov	 ecx, OFFSET __C12F3EA4_ostream
  00044	e8 00 00 00 00	 call	 @__CheckForDebuggerJustMyCode@4

; 79   :             const auto _Rdbuf = _Myostr.rdbuf();

  00049	8b 45 ec	 mov	 eax, DWORD PTR _this$[ebp]
  0004c	8b 08		 mov	 ecx, DWORD PTR [eax]
  0004e	89 8d 18 ff ff
	ff		 mov	 DWORD PTR tv72[ebp], ecx
  00054	8b 95 18 ff ff
	ff		 mov	 edx, DWORD PTR tv72[ebp]
  0005a	8b 02		 mov	 eax, DWORD PTR [edx]
  0005c	8b 8d 18 ff ff
	ff		 mov	 ecx, DWORD PTR tv72[ebp]
  00062	03 48 04	 add	 ecx, DWORD PTR [eax+4]
  00065	8b f4		 mov	 esi, esp
  00067	ff 15 00 00 00
	00		 call	 DWORD PTR __imp_?rdbuf@?$basic_ios@DU?$char_traits@D@std@@@std@@QBEPAV?$basic_streambuf@DU?$char_traits@D@std@@@2@XZ
  0006d	3b f4		 cmp	 esi, esp
  0006f	e8 00 00 00 00	 call	 __RTC_CheckEsp
  00074	89 45 e0	 mov	 DWORD PTR __Rdbuf$[ebp], eax

; 80   :             if (_Rdbuf) {

  00077	83 7d e0 00	 cmp	 DWORD PTR __Rdbuf$[ebp], 0
  0007b	74 16		 je	 SHORT $LN3@Sentry_bas

; 81   :                 _Rdbuf->_Unlock();

  0007d	8b 45 e0	 mov	 eax, DWORD PTR __Rdbuf$[ebp]
  00080	8b 10		 mov	 edx, DWORD PTR [eax]
  00082	8b f4		 mov	 esi, esp
  00084	8b 4d e0	 mov	 ecx, DWORD PTR __Rdbuf$[ebp]
  00087	8b 42 08	 mov	 eax, DWORD PTR [edx+8]
  0008a	ff d0		 call	 eax
  0008c	3b f4		 cmp	 esi, esp
  0008e	e8 00 00 00 00	 call	 __RTC_CheckEsp
$LN3@Sentry_bas:

; 82   :             }
; 83   :         }

  00093	8b 4d f4	 mov	 ecx, DWORD PTR __$EHRec$[ebp]
  00096	64 89 0d 00 00
	00 00		 mov	 DWORD PTR fs:0, ecx
  0009d	59		 pop	 ecx
  0009e	5f		 pop	 edi
  0009f	5e		 pop	 esi
  000a0	5b		 pop	 ebx
  000a1	81 c4 e8 00 00
	00		 add	 esp, 232		; 000000e8H
  000a7	3b ec		 cmp	 ebp, esp
  000a9	e8 00 00 00 00	 call	 __RTC_CheckEsp
  000ae	8b e5		 mov	 esp, ebp
  000b0	5d		 pop	 ebp
  000b1	c3		 ret	 0
  000b2	cc		 int	 3
  000b3	cc		 int	 3
  000b4	cc		 int	 3
  000b5	cc		 int	 3
  000b6	cc		 int	 3
_TEXT	ENDS
;	COMDAT text$x
text$x	SEGMENT
__ehhandler$??1_Sentry_base@?$basic_ostream@DU?$char_traits@D@std@@@std@@QAE@XZ:
  00000	90		 npad	 1
  00001	90		 npad	 1
  00002	8b 54 24 08	 mov	 edx, DWORD PTR [esp+8]
  00006	8d 42 0c	 lea	 eax, DWORD PTR [edx+12]
  00009	8b 8a 14 ff ff
	ff		 mov	 ecx, DWORD PTR [edx-236]
  0000f	33 c8		 xor	 ecx, eax
  00011	e8 00 00 00 00	 call	 @__security_check_cookie@4
  00016	b8 00 00 00 00	 mov	 eax, OFFSET __ehfuncinfo$??1_Sentry_base@?$basic_ostream@DU?$char_traits@D@std@@@std@@QAE@XZ
  0001b	e9 00 00 00 00	 jmp	 ___CxxFrameHandler3
text$x	ENDS
??1_Sentry_base@?$basic_ostream@DU?$char_traits@D@std@@@std@@QAE@XZ ENDP ; std::basic_ostream<char,std::char_traits<char> >::_Sentry_base::~_Sentry_base
; Function compile flags: /Odtp /RTCsu /ZI
; File C:\Program Files (x86)\Microsoft Visual Studio\2019\Community\VC\Tools\MSVC\14.29.30133\include\ostream
;	COMDAT ??0_Sentry_base@?$basic_ostream@DU?$char_traits@D@std@@@std@@QAE@AAV12@@Z
_TEXT	SEGMENT
tv73 = -220						; size = 4
__Rdbuf$ = -20						; size = 4
_this$ = -8						; size = 4
__Ostr$ = 8						; size = 4
??0_Sentry_base@?$basic_ostream@DU?$char_traits@D@std@@@std@@QAE@AAV12@@Z PROC ; std::basic_ostream<char,std::char_traits<char> >::_Sentry_base::_Sentry_base, COMDAT
; _this$ = ecx

; 71   :         __CLR_OR_THIS_CALL _Sentry_base(basic_ostream& _Ostr) : _Myostr(_Ostr) { // lock the stream buffer, if there

  00000	55		 push	 ebp
  00001	8b ec		 mov	 ebp, esp
  00003	81 ec dc 00 00
	00		 sub	 esp, 220		; 000000dcH
  00009	53		 push	 ebx
  0000a	56		 push	 esi
  0000b	57		 push	 edi
  0000c	51		 push	 ecx
  0000d	8d 7d e4	 lea	 edi, DWORD PTR [ebp-28]
  00010	b9 07 00 00 00	 mov	 ecx, 7
  00015	b8 cc cc cc cc	 mov	 eax, -858993460		; ccccccccH
  0001a	f3 ab		 rep stosd
  0001c	59		 pop	 ecx
  0001d	89 4d f8	 mov	 DWORD PTR _this$[ebp], ecx
  00020	b9 00 00 00 00	 mov	 ecx, OFFSET __C12F3EA4_ostream
  00025	e8 00 00 00 00	 call	 @__CheckForDebuggerJustMyCode@4
  0002a	8b 45 f8	 mov	 eax, DWORD PTR _this$[ebp]
  0002d	8b 4d 08	 mov	 ecx, DWORD PTR __Ostr$[ebp]
  00030	89 08		 mov	 DWORD PTR [eax], ecx

; 72   :             const auto _Rdbuf = _Myostr.rdbuf();

  00032	8b 45 f8	 mov	 eax, DWORD PTR _this$[ebp]
  00035	8b 08		 mov	 ecx, DWORD PTR [eax]
  00037	89 8d 24 ff ff
	ff		 mov	 DWORD PTR tv73[ebp], ecx
  0003d	8b 95 24 ff ff
	ff		 mov	 edx, DWORD PTR tv73[ebp]
  00043	8b 02		 mov	 eax, DWORD PTR [edx]
  00045	8b 8d 24 ff ff
	ff		 mov	 ecx, DWORD PTR tv73[ebp]
  0004b	03 48 04	 add	 ecx, DWORD PTR [eax+4]
  0004e	8b f4		 mov	 esi, esp
  00050	ff 15 00 00 00
	00		 call	 DWORD PTR __imp_?rdbuf@?$basic_ios@DU?$char_traits@D@std@@@std@@QBEPAV?$basic_streambuf@DU?$char_traits@D@std@@@2@XZ
  00056	3b f4		 cmp	 esi, esp
  00058	e8 00 00 00 00	 call	 __RTC_CheckEsp
  0005d	89 45 ec	 mov	 DWORD PTR __Rdbuf$[ebp], eax

; 73   :             if (_Rdbuf) {

  00060	83 7d ec 00	 cmp	 DWORD PTR __Rdbuf$[ebp], 0
  00064	74 16		 je	 SHORT $LN1@Sentry_bas

; 74   :                 _Rdbuf->_Lock();

  00066	8b 45 ec	 mov	 eax, DWORD PTR __Rdbuf$[ebp]
  00069	8b 10		 mov	 edx, DWORD PTR [eax]
  0006b	8b f4		 mov	 esi, esp
  0006d	8b 4d ec	 mov	 ecx, DWORD PTR __Rdbuf$[ebp]
  00070	8b 42 04	 mov	 eax, DWORD PTR [edx+4]
  00073	ff d0		 call	 eax
  00075	3b f4		 cmp	 esi, esp
  00077	e8 00 00 00 00	 call	 __RTC_CheckEsp
$LN1@Sentry_bas:

; 75   :             }
; 76   :         }

  0007c	8b 45 f8	 mov	 eax, DWORD PTR _this$[ebp]
  0007f	5f		 pop	 edi
  00080	5e		 pop	 esi
  00081	5b		 pop	 ebx
  00082	81 c4 dc 00 00
	00		 add	 esp, 220		; 000000dcH
  00088	3b ec		 cmp	 ebp, esp
  0008a	e8 00 00 00 00	 call	 __RTC_CheckEsp
  0008f	8b e5		 mov	 esp, ebp
  00091	5d		 pop	 ebp
  00092	c2 04 00	 ret	 4
??0_Sentry_base@?$basic_ostream@DU?$char_traits@D@std@@@std@@QAE@AAV12@@Z ENDP ; std::basic_ostream<char,std::char_traits<char> >::_Sentry_base::_Sentry_base
_TEXT	ENDS
; Function compile flags: /Odtp /RTCsu /ZI
; File C:\Program Files (x86)\Microsoft Visual Studio\2019\Community\VC\Tools\MSVC\14.29.30133\include\xstring
;	COMDAT ??$?6DU?$char_traits@D@std@@V?$allocator@D@1@@std@@YAAAV?$basic_ostream@DU?$char_traits@D@std@@@0@AAV10@ABV?$basic_string@DU?$char_traits@D@std@@V?$allocator@D@2@@0@@Z
_TEXT	SEGMENT
__Ostr$ = 8						; size = 4
__Str$ = 12						; size = 4
??$?6DU?$char_traits@D@std@@V?$allocator@D@1@@std@@YAAAV?$basic_ostream@DU?$char_traits@D@std@@@0@AAV10@ABV?$basic_string@DU?$char_traits@D@std@@V?$allocator@D@2@@0@@Z PROC ; std::operator<<<char,std::char_traits<char>,std::allocator<char> >, COMDAT

; 4982 :     basic_ostream<_Elem, _Traits>& _Ostr, const basic_string<_Elem, _Traits, _Alloc>& _Str) {

  00000	55		 push	 ebp
  00001	8b ec		 mov	 ebp, esp
  00003	81 ec c0 00 00
	00		 sub	 esp, 192		; 000000c0H
  00009	53		 push	 ebx
  0000a	56		 push	 esi
  0000b	57		 push	 edi
  0000c	8b fd		 mov	 edi, ebp
  0000e	33 c9		 xor	 ecx, ecx
  00010	b8 cc cc cc cc	 mov	 eax, -858993460		; ccccccccH
  00015	f3 ab		 rep stosd
  00017	b9 00 00 00 00	 mov	 ecx, OFFSET __0D019051_xstring
  0001c	e8 00 00 00 00	 call	 @__CheckForDebuggerJustMyCode@4

; 4983 :     return _Insert_string(_Ostr, _Str.data(), _Str.size());

  00021	8b 4d 0c	 mov	 ecx, DWORD PTR __Str$[ebp]
  00024	e8 00 00 00 00	 call	 ?size@?$basic_string@DU?$char_traits@D@std@@V?$allocator@D@2@@std@@QBEIXZ ; std::basic_string<char,std::char_traits<char>,std::allocator<char> >::size
  00029	50		 push	 eax
  0002a	8b 4d 0c	 mov	 ecx, DWORD PTR __Str$[ebp]
  0002d	e8 00 00 00 00	 call	 ?data@?$basic_string@DU?$char_traits@D@std@@V?$allocator@D@2@@std@@QBEPBDXZ ; std::basic_string<char,std::char_traits<char>,std::allocator<char> >::data
  00032	50		 push	 eax
  00033	8b 45 08	 mov	 eax, DWORD PTR __Ostr$[ebp]
  00036	50		 push	 eax
  00037	e8 00 00 00 00	 call	 ??$_Insert_string@DU?$char_traits@D@std@@I@std@@YAAAV?$basic_ostream@DU?$char_traits@D@std@@@0@AAV10@QBDI@Z ; std::_Insert_string<char,std::char_traits<char>,unsigned int>
  0003c	83 c4 0c	 add	 esp, 12			; 0000000cH

; 4984 : }

  0003f	5f		 pop	 edi
  00040	5e		 pop	 esi
  00041	5b		 pop	 ebx
  00042	81 c4 c0 00 00
	00		 add	 esp, 192		; 000000c0H
  00048	3b ec		 cmp	 ebp, esp
  0004a	e8 00 00 00 00	 call	 __RTC_CheckEsp
  0004f	8b e5		 mov	 esp, ebp
  00051	5d		 pop	 ebp
  00052	c3		 ret	 0
??$?6DU?$char_traits@D@std@@V?$allocator@D@1@@std@@YAAAV?$basic_ostream@DU?$char_traits@D@std@@@0@AAV10@ABV?$basic_string@DU?$char_traits@D@std@@V?$allocator@D@2@@0@@Z ENDP ; std::operator<<<char,std::char_traits<char>,std::allocator<char> >
_TEXT	ENDS
; Function compile flags: /Odtp /RTCsu /ZI
; File C:\Program Files (x86)\Microsoft Visual Studio\2019\Community\VC\Tools\MSVC\14.29.30133\include\ostream
;	COMDAT ??$endl@DU?$char_traits@D@std@@@std@@YAAAV?$basic_ostream@DU?$char_traits@D@std@@@0@AAV10@@Z
_TEXT	SEGMENT
__Ostr$ = 8						; size = 4
??$endl@DU?$char_traits@D@std@@@std@@YAAAV?$basic_ostream@DU?$char_traits@D@std@@@0@AAV10@@Z PROC ; std::endl<char,std::char_traits<char> >, COMDAT

; 978  :     basic_ostream<_Elem, _Traits>& _Ostr) { // insert newline and flush stream

  00000	55		 push	 ebp
  00001	8b ec		 mov	 ebp, esp
  00003	81 ec c0 00 00
	00		 sub	 esp, 192		; 000000c0H
  00009	53		 push	 ebx
  0000a	56		 push	 esi
  0000b	57		 push	 edi
  0000c	8b fd		 mov	 edi, ebp
  0000e	33 c9		 xor	 ecx, ecx
  00010	b8 cc cc cc cc	 mov	 eax, -858993460		; ccccccccH
  00015	f3 ab		 rep stosd
  00017	b9 00 00 00 00	 mov	 ecx, OFFSET __C12F3EA4_ostream
  0001c	e8 00 00 00 00	 call	 @__CheckForDebuggerJustMyCode@4

; 979  :     _Ostr.put(_Ostr.widen('\n'));

  00021	8b f4		 mov	 esi, esp
  00023	6a 0a		 push	 10			; 0000000aH
  00025	8b 45 08	 mov	 eax, DWORD PTR __Ostr$[ebp]
  00028	8b 08		 mov	 ecx, DWORD PTR [eax]
  0002a	8b 55 08	 mov	 edx, DWORD PTR __Ostr$[ebp]
  0002d	03 51 04	 add	 edx, DWORD PTR [ecx+4]
  00030	8b ca		 mov	 ecx, edx
  00032	ff 15 00 00 00
	00		 call	 DWORD PTR __imp_?widen@?$basic_ios@DU?$char_traits@D@std@@@std@@QBEDD@Z
  00038	3b f4		 cmp	 esi, esp
  0003a	e8 00 00 00 00	 call	 __RTC_CheckEsp
  0003f	8b f4		 mov	 esi, esp
  00041	0f b6 c0	 movzx	 eax, al
  00044	50		 push	 eax
  00045	8b 4d 08	 mov	 ecx, DWORD PTR __Ostr$[ebp]
  00048	ff 15 00 00 00
	00		 call	 DWORD PTR __imp_?put@?$basic_ostream@DU?$char_traits@D@std@@@std@@QAEAAV12@D@Z
  0004e	3b f4		 cmp	 esi, esp
  00050	e8 00 00 00 00	 call	 __RTC_CheckEsp

; 980  :     _Ostr.flush();

  00055	8b f4		 mov	 esi, esp
  00057	8b 4d 08	 mov	 ecx, DWORD PTR __Ostr$[ebp]
  0005a	ff 15 00 00 00
	00		 call	 DWORD PTR __imp_?flush@?$basic_ostream@DU?$char_traits@D@std@@@std@@QAEAAV12@XZ
  00060	3b f4		 cmp	 esi, esp
  00062	e8 00 00 00 00	 call	 __RTC_CheckEsp

; 981  :     return _Ostr;

  00067	8b 45 08	 mov	 eax, DWORD PTR __Ostr$[ebp]

; 982  : }

  0006a	5f		 pop	 edi
  0006b	5e		 pop	 esi
  0006c	5b		 pop	 ebx
  0006d	81 c4 c0 00 00
	00		 add	 esp, 192		; 000000c0H
  00073	3b ec		 cmp	 ebp, esp
  00075	e8 00 00 00 00	 call	 __RTC_CheckEsp
  0007a	8b e5		 mov	 esp, ebp
  0007c	5d		 pop	 ebp
  0007d	c3		 ret	 0
??$endl@DU?$char_traits@D@std@@@std@@YAAAV?$basic_ostream@DU?$char_traits@D@std@@@0@AAV10@@Z ENDP ; std::endl<char,std::char_traits<char> >
_TEXT	ENDS
; Function compile flags: /Odtp /RTCsu /ZI
; File C:\Program Files (x86)\Microsoft Visual Studio\2019\Community\VC\Tools\MSVC\14.29.30133\include\ostream
;	COMDAT ??$?6U?$char_traits@D@std@@@std@@YAAAV?$basic_ostream@DU?$char_traits@D@std@@@0@AAV10@PBD@Z
_TEXT	SEGMENT
tv135 = -356						; size = 8
tv343 = -348						; size = 8
tv291 = -344						; size = 4
tv288 = -344						; size = 8
tv286 = -344						; size = 4
tv329 = -340						; size = 8
tv290 = -340						; size = 4
tv285 = -340						; size = 4
tv287 = -336						; size = 4
tv137 = -336						; size = 4
tv289 = -333						; size = 1
tv284 = -333						; size = 1
$T2 = -328						; size = 4
$T3 = -316						; size = 4
$T4 = -304						; size = 4
$T5 = -292						; size = 4
$T6 = -280						; size = 4
__Ok$ = -76						; size = 8
__Pad$ = -60						; size = 8
__Count$ = -44						; size = 8
__State$ = -28						; size = 4
__$ArrayPad$ = -20					; size = 4
__$EHRec$ = -16						; size = 16
__Ostr$ = 8						; size = 4
__Val$ = 12						; size = 4
??$?6U?$char_traits@D@std@@@std@@YAAAV?$basic_ostream@DU?$char_traits@D@std@@@0@AAV10@PBD@Z PROC ; std::operator<<<std::char_traits<char> >, COMDAT

; 734  :     const char* _Val) { // insert NTBS into char stream

  00000	55		 push	 ebp
  00001	8b ec		 mov	 ebp, esp
  00003	6a ff		 push	 -1
  00005	68 00 00 00 00	 push	 __ehhandler$??$?6U?$char_traits@D@std@@@std@@YAAAV?$basic_ostream@DU?$char_traits@D@std@@@0@AAV10@PBD@Z
  0000a	64 a1 00 00 00
	00		 mov	 eax, DWORD PTR fs:0
  00010	50		 push	 eax
  00011	51		 push	 ecx
  00012	81 ec 54 01 00
	00		 sub	 esp, 340		; 00000154H
  00018	53		 push	 ebx
  00019	56		 push	 esi
  0001a	57		 push	 edi
  0001b	8d bd 5c ff ff
	ff		 lea	 edi, DWORD PTR [ebp-164]
  00021	b9 25 00 00 00	 mov	 ecx, 37			; 00000025H
  00026	b8 cc cc cc cc	 mov	 eax, -858993460		; ccccccccH
  0002b	f3 ab		 rep stosd
  0002d	a1 00 00 00 00	 mov	 eax, DWORD PTR ___security_cookie
  00032	33 c5		 xor	 eax, ebp
  00034	89 45 ec	 mov	 DWORD PTR __$ArrayPad$[ebp], eax
  00037	50		 push	 eax
  00038	8d 45 f4	 lea	 eax, DWORD PTR __$EHRec$[ebp+4]
  0003b	64 a3 00 00 00
	00		 mov	 DWORD PTR fs:0, eax
  00041	89 65 f0	 mov	 DWORD PTR __$EHRec$[ebp], esp
  00044	b9 00 00 00 00	 mov	 ecx, OFFSET __C12F3EA4_ostream
  00049	e8 00 00 00 00	 call	 @__CheckForDebuggerJustMyCode@4

; 735  :     using _Elem = char;
; 736  :     using _Myos = basic_ostream<_Elem, _Traits>;
; 737  : 
; 738  :     ios_base::iostate _State = ios_base::goodbit;

  0004e	c7 45 e4 00 00
	00 00		 mov	 DWORD PTR __State$[ebp], 0

; 739  :     streamsize _Count        = static_cast<streamsize>(_Traits::length(_Val));

  00055	8b 45 0c	 mov	 eax, DWORD PTR __Val$[ebp]
  00058	50		 push	 eax
  00059	e8 00 00 00 00	 call	 ?length@?$_Narrow_char_traits@DH@std@@SAIQBD@Z ; std::_Narrow_char_traits<char,int>::length
  0005e	83 c4 04	 add	 esp, 4
  00061	33 c9		 xor	 ecx, ecx
  00063	89 45 d4	 mov	 DWORD PTR __Count$[ebp], eax
  00066	89 4d d8	 mov	 DWORD PTR __Count$[ebp+4], ecx

; 740  :     streamsize _Pad          = _Ostr.width() <= 0 || _Ostr.width() <= _Count ? 0 : _Ostr.width() - _Count;

  00069	8b 45 08	 mov	 eax, DWORD PTR __Ostr$[ebp]
  0006c	8b 08		 mov	 ecx, DWORD PTR [eax]
  0006e	8b 55 08	 mov	 edx, DWORD PTR __Ostr$[ebp]
  00071	03 51 04	 add	 edx, DWORD PTR [ecx+4]
  00074	8b f4		 mov	 esi, esp
  00076	8b ca		 mov	 ecx, edx
  00078	ff 15 00 00 00
	00		 call	 DWORD PTR __imp_?width@ios_base@std@@QBE_JXZ
  0007e	3b f4		 cmp	 esi, esp
  00080	e8 00 00 00 00	 call	 __RTC_CheckEsp
  00085	89 85 ac fe ff
	ff		 mov	 DWORD PTR tv329[ebp], eax
  0008b	89 95 b0 fe ff
	ff		 mov	 DWORD PTR tv329[ebp+4], edx
  00091	83 bd b0 fe ff
	ff 00		 cmp	 DWORD PTR tv329[ebp+4], 0
  00098	7c 79		 jl	 SHORT $LN17@operator
  0009a	7f 09		 jg	 SHORT $LN24@operator
  0009c	83 bd ac fe ff
	ff 00		 cmp	 DWORD PTR tv329[ebp], 0
  000a3	76 6e		 jbe	 SHORT $LN17@operator
$LN24@operator:
  000a5	8b 45 08	 mov	 eax, DWORD PTR __Ostr$[ebp]
  000a8	8b 08		 mov	 ecx, DWORD PTR [eax]
  000aa	8b 55 08	 mov	 edx, DWORD PTR __Ostr$[ebp]
  000ad	03 51 04	 add	 edx, DWORD PTR [ecx+4]
  000b0	8b f4		 mov	 esi, esp
  000b2	8b ca		 mov	 ecx, edx
  000b4	ff 15 00 00 00
	00		 call	 DWORD PTR __imp_?width@ios_base@std@@QBE_JXZ
  000ba	3b f4		 cmp	 esi, esp
  000bc	e8 00 00 00 00	 call	 __RTC_CheckEsp
  000c1	89 85 a4 fe ff
	ff		 mov	 DWORD PTR tv343[ebp], eax
  000c7	89 95 a8 fe ff
	ff		 mov	 DWORD PTR tv343[ebp+4], edx
  000cd	8b 85 a8 fe ff
	ff		 mov	 eax, DWORD PTR tv343[ebp+4]
  000d3	3b 45 d8	 cmp	 eax, DWORD PTR __Count$[ebp+4]
  000d6	7c 3b		 jl	 SHORT $LN17@operator
  000d8	7f 0b		 jg	 SHORT $LN25@operator
  000da	8b 8d a4 fe ff
	ff		 mov	 ecx, DWORD PTR tv343[ebp]
  000e0	3b 4d d4	 cmp	 ecx, DWORD PTR __Count$[ebp]
  000e3	76 2e		 jbe	 SHORT $LN17@operator
$LN25@operator:
  000e5	8b 55 08	 mov	 edx, DWORD PTR __Ostr$[ebp]
  000e8	8b 02		 mov	 eax, DWORD PTR [edx]
  000ea	8b 4d 08	 mov	 ecx, DWORD PTR __Ostr$[ebp]
  000ed	03 48 04	 add	 ecx, DWORD PTR [eax+4]
  000f0	8b f4		 mov	 esi, esp
  000f2	ff 15 00 00 00
	00		 call	 DWORD PTR __imp_?width@ios_base@std@@QBE_JXZ
  000f8	3b f4		 cmp	 esi, esp
  000fa	e8 00 00 00 00	 call	 __RTC_CheckEsp
  000ff	2b 45 d4	 sub	 eax, DWORD PTR __Count$[ebp]
  00102	1b 55 d8	 sbb	 edx, DWORD PTR __Count$[ebp+4]
  00105	89 85 9c fe ff
	ff		 mov	 DWORD PTR tv135[ebp], eax
  0010b	89 95 a0 fe ff
	ff		 mov	 DWORD PTR tv135[ebp+4], edx
  00111	eb 0b		 jmp	 SHORT $LN18@operator
$LN17@operator:
  00113	0f 57 c0	 xorps	 xmm0, xmm0
  00116	66 0f 13 85 9c
	fe ff ff	 movlpd	 QWORD PTR tv135[ebp], xmm0
$LN18@operator:
  0011e	8b 8d 9c fe ff
	ff		 mov	 ecx, DWORD PTR tv135[ebp]
  00124	8b 95 a0 fe ff
	ff		 mov	 edx, DWORD PTR tv135[ebp+4]
  0012a	89 4d c4	 mov	 DWORD PTR __Pad$[ebp], ecx
  0012d	89 55 c8	 mov	 DWORD PTR __Pad$[ebp+4], edx

; 741  :     const typename _Myos::sentry _Ok(_Ostr);

  00130	8b 45 08	 mov	 eax, DWORD PTR __Ostr$[ebp]
  00133	50		 push	 eax
  00134	8d 4d b4	 lea	 ecx, DWORD PTR __Ok$[ebp]
  00137	e8 00 00 00 00	 call	 ??0sentry@?$basic_ostream@DU?$char_traits@D@std@@@std@@QAE@AAV12@@Z ; std::basic_ostream<char,std::char_traits<char> >::sentry::sentry
  0013c	c7 45 fc 00 00
	00 00		 mov	 DWORD PTR __$EHRec$[ebp+12], 0

; 742  : 
; 743  :     if (!_Ok) {

  00143	8d 4d b4	 lea	 ecx, DWORD PTR __Ok$[ebp]
  00146	e8 00 00 00 00	 call	 ??Bsentry@?$basic_ostream@DU?$char_traits@D@std@@@std@@QBE_NXZ ; std::basic_ostream<char,std::char_traits<char> >::sentry::operator bool
  0014b	0f b6 c0	 movzx	 eax, al
  0014e	85 c0		 test	 eax, eax
  00150	75 0e		 jne	 SHORT $LN8@operator

; 744  :         _State |= ios_base::badbit;

  00152	8b 45 e4	 mov	 eax, DWORD PTR __State$[ebp]
  00155	83 c8 04	 or	 eax, 4
  00158	89 45 e4	 mov	 DWORD PTR __State$[ebp], eax

; 745  :     } else { // state okay, insert

  0015b	e9 ba 02 00 00	 jmp	 $LN9@operator
$LN8@operator:

; 746  :         _TRY_IO_BEGIN

  00160	c6 45 fc 01	 mov	 BYTE PTR __$EHRec$[ebp+12], 1

; 747  :         if ((_Ostr.flags() & ios_base::adjustfield) != ios_base::left) {

  00164	8b 45 08	 mov	 eax, DWORD PTR __Ostr$[ebp]
  00167	8b 08		 mov	 ecx, DWORD PTR [eax]
  00169	8b 55 08	 mov	 edx, DWORD PTR __Ostr$[ebp]
  0016c	03 51 04	 add	 edx, DWORD PTR [ecx+4]
  0016f	8b f4		 mov	 esi, esp
  00171	8b ca		 mov	 ecx, edx
  00173	ff 15 00 00 00
	00		 call	 DWORD PTR __imp_?flags@ios_base@std@@QBEHXZ
  00179	3b f4		 cmp	 esi, esp
  0017b	e8 00 00 00 00	 call	 __RTC_CheckEsp
  00180	89 85 b0 fe ff
	ff		 mov	 DWORD PTR tv137[ebp], eax
  00186	8b 85 b0 fe ff
	ff		 mov	 eax, DWORD PTR tv137[ebp]
  0018c	25 c0 01 00 00	 and	 eax, 448		; 000001c0H
  00191	83 f8 40	 cmp	 eax, 64			; 00000040H
  00194	0f 84 d5 00 00
	00		 je	 $LN11@operator

; 748  :             for (; 0 < _Pad; --_Pad) { // pad on left

  0019a	eb 12		 jmp	 SHORT $LN4@operator
$LN2@operator:
  0019c	8b 45 c4	 mov	 eax, DWORD PTR __Pad$[ebp]
  0019f	83 e8 01	 sub	 eax, 1
  001a2	8b 4d c8	 mov	 ecx, DWORD PTR __Pad$[ebp+4]
  001a5	83 d9 00	 sbb	 ecx, 0
  001a8	89 45 c4	 mov	 DWORD PTR __Pad$[ebp], eax
  001ab	89 4d c8	 mov	 DWORD PTR __Pad$[ebp+4], ecx
$LN4@operator:
  001ae	83 7d c8 00	 cmp	 DWORD PTR __Pad$[ebp+4], 0
  001b2	0f 8c b7 00 00
	00		 jl	 $LN11@operator
  001b8	7f 0a		 jg	 SHORT $LN26@operator
  001ba	83 7d c4 00	 cmp	 DWORD PTR __Pad$[ebp], 0
  001be	0f 86 ab 00 00
	00		 jbe	 $LN11@operator
$LN26@operator:

; 749  :                 if (_Traits::eq_int_type(_Traits::eof(), _Ostr.rdbuf()->sputc(_Ostr.fill()))) {

  001c4	8b 45 08	 mov	 eax, DWORD PTR __Ostr$[ebp]
  001c7	8b 08		 mov	 ecx, DWORD PTR [eax]
  001c9	8b 55 08	 mov	 edx, DWORD PTR __Ostr$[ebp]
  001cc	03 51 04	 add	 edx, DWORD PTR [ecx+4]
  001cf	8b f4		 mov	 esi, esp
  001d1	8b ca		 mov	 ecx, edx
  001d3	ff 15 00 00 00
	00		 call	 DWORD PTR __imp_?fill@?$basic_ios@DU?$char_traits@D@std@@@std@@QBEDXZ
  001d9	3b f4		 cmp	 esi, esp
  001db	e8 00 00 00 00	 call	 __RTC_CheckEsp
  001e0	88 85 b3 fe ff
	ff		 mov	 BYTE PTR tv284[ebp], al
  001e6	8b 45 08	 mov	 eax, DWORD PTR __Ostr$[ebp]
  001e9	8b 08		 mov	 ecx, DWORD PTR [eax]
  001eb	8b 55 08	 mov	 edx, DWORD PTR __Ostr$[ebp]
  001ee	03 51 04	 add	 edx, DWORD PTR [ecx+4]
  001f1	8b f4		 mov	 esi, esp
  001f3	8b ca		 mov	 ecx, edx
  001f5	ff 15 00 00 00
	00		 call	 DWORD PTR __imp_?rdbuf@?$basic_ios@DU?$char_traits@D@std@@@std@@QBEPAV?$basic_streambuf@DU?$char_traits@D@std@@@2@XZ
  001fb	3b f4		 cmp	 esi, esp
  001fd	e8 00 00 00 00	 call	 __RTC_CheckEsp
  00202	89 85 ac fe ff
	ff		 mov	 DWORD PTR tv285[ebp], eax
  00208	8b f4		 mov	 esi, esp
  0020a	0f b6 85 b3 fe
	ff ff		 movzx	 eax, BYTE PTR tv284[ebp]
  00211	50		 push	 eax
  00212	8b 8d ac fe ff
	ff		 mov	 ecx, DWORD PTR tv285[ebp]
  00218	ff 15 00 00 00
	00		 call	 DWORD PTR __imp_?sputc@?$basic_streambuf@DU?$char_traits@D@std@@@std@@QAEHD@Z
  0021e	3b f4		 cmp	 esi, esp
  00220	e8 00 00 00 00	 call	 __RTC_CheckEsp
  00225	89 85 a8 fe ff
	ff		 mov	 DWORD PTR tv286[ebp], eax
  0022b	8b 8d a8 fe ff
	ff		 mov	 ecx, DWORD PTR tv286[ebp]
  00231	89 8d e8 fe ff
	ff		 mov	 DWORD PTR $T6[ebp], ecx
  00237	e8 00 00 00 00	 call	 ?eof@?$_Narrow_char_traits@DH@std@@SAHXZ ; std::_Narrow_char_traits<char,int>::eof
  0023c	89 85 dc fe ff
	ff		 mov	 DWORD PTR $T5[ebp], eax
  00242	8d 95 e8 fe ff
	ff		 lea	 edx, DWORD PTR $T6[ebp]
  00248	52		 push	 edx
  00249	8d 85 dc fe ff
	ff		 lea	 eax, DWORD PTR $T5[ebp]
  0024f	50		 push	 eax
  00250	e8 00 00 00 00	 call	 ?eq_int_type@?$_Narrow_char_traits@DH@std@@SA_NABH0@Z ; std::_Narrow_char_traits<char,int>::eq_int_type
  00255	83 c4 08	 add	 esp, 8
  00258	0f b6 c8	 movzx	 ecx, al
  0025b	85 c9		 test	 ecx, ecx
  0025d	74 0b		 je	 SHORT $LN12@operator

; 750  :                     _State |= ios_base::badbit; // insertion failed, quit

  0025f	8b 45 e4	 mov	 eax, DWORD PTR __State$[ebp]
  00262	83 c8 04	 or	 eax, 4
  00265	89 45 e4	 mov	 DWORD PTR __State$[ebp], eax

; 751  :                     break;

  00268	eb 05		 jmp	 SHORT $LN11@operator
$LN12@operator:

; 752  :                 }
; 753  :             }

  0026a	e9 2d ff ff ff	 jmp	 $LN2@operator
$LN11@operator:

; 754  :         }
; 755  : 
; 756  :         if (_State == ios_base::goodbit && _Ostr.rdbuf()->sputn(_Val, _Count) != _Count) {

  0026f	83 7d e4 00	 cmp	 DWORD PTR __State$[ebp], 0
  00273	75 6e		 jne	 SHORT $LN13@operator
  00275	8b 45 08	 mov	 eax, DWORD PTR __Ostr$[ebp]
  00278	8b 08		 mov	 ecx, DWORD PTR [eax]
  0027a	8b 55 08	 mov	 edx, DWORD PTR __Ostr$[ebp]
  0027d	03 51 04	 add	 edx, DWORD PTR [ecx+4]
  00280	8b f4		 mov	 esi, esp
  00282	8b ca		 mov	 ecx, edx
  00284	ff 15 00 00 00
	00		 call	 DWORD PTR __imp_?rdbuf@?$basic_ios@DU?$char_traits@D@std@@@std@@QBEPAV?$basic_streambuf@DU?$char_traits@D@std@@@2@XZ
  0028a	3b f4		 cmp	 esi, esp
  0028c	e8 00 00 00 00	 call	 __RTC_CheckEsp
  00291	89 85 b0 fe ff
	ff		 mov	 DWORD PTR tv287[ebp], eax
  00297	8b f4		 mov	 esi, esp
  00299	8b 45 d8	 mov	 eax, DWORD PTR __Count$[ebp+4]
  0029c	50		 push	 eax
  0029d	8b 4d d4	 mov	 ecx, DWORD PTR __Count$[ebp]
  002a0	51		 push	 ecx
  002a1	8b 55 0c	 mov	 edx, DWORD PTR __Val$[ebp]
  002a4	52		 push	 edx
  002a5	8b 8d b0 fe ff
	ff		 mov	 ecx, DWORD PTR tv287[ebp]
  002ab	ff 15 00 00 00
	00		 call	 DWORD PTR __imp_?sputn@?$basic_streambuf@DU?$char_traits@D@std@@@std@@QAE_JPBD_J@Z
  002b1	3b f4		 cmp	 esi, esp
  002b3	e8 00 00 00 00	 call	 __RTC_CheckEsp
  002b8	89 85 a8 fe ff
	ff		 mov	 DWORD PTR tv288[ebp], eax
  002be	89 95 ac fe ff
	ff		 mov	 DWORD PTR tv288[ebp+4], edx
  002c4	8b 85 a8 fe ff
	ff		 mov	 eax, DWORD PTR tv288[ebp]
  002ca	3b 45 d4	 cmp	 eax, DWORD PTR __Count$[ebp]
  002cd	75 0b		 jne	 SHORT $LN27@operator
  002cf	8b 8d ac fe ff
	ff		 mov	 ecx, DWORD PTR tv288[ebp+4]
  002d5	3b 4d d8	 cmp	 ecx, DWORD PTR __Count$[ebp+4]
  002d8	74 09		 je	 SHORT $LN13@operator
$LN27@operator:

; 757  :             _State |= ios_base::badbit;

  002da	8b 45 e4	 mov	 eax, DWORD PTR __State$[ebp]
  002dd	83 c8 04	 or	 eax, 4
  002e0	89 45 e4	 mov	 DWORD PTR __State$[ebp], eax
$LN13@operator:

; 758  :         }
; 759  : 
; 760  :         if (_State == ios_base::goodbit) {

  002e3	83 7d e4 00	 cmp	 DWORD PTR __State$[ebp], 0
  002e7	0f 85 d5 00 00
	00		 jne	 $LN14@operator

; 761  :             for (; 0 < _Pad; --_Pad) { // pad on right

  002ed	eb 12		 jmp	 SHORT $LN7@operator
$LN5@operator:
  002ef	8b 45 c4	 mov	 eax, DWORD PTR __Pad$[ebp]
  002f2	83 e8 01	 sub	 eax, 1
  002f5	8b 4d c8	 mov	 ecx, DWORD PTR __Pad$[ebp+4]
  002f8	83 d9 00	 sbb	 ecx, 0
  002fb	89 45 c4	 mov	 DWORD PTR __Pad$[ebp], eax
  002fe	89 4d c8	 mov	 DWORD PTR __Pad$[ebp+4], ecx
$LN7@operator:
  00301	83 7d c8 00	 cmp	 DWORD PTR __Pad$[ebp+4], 0
  00305	0f 8c b7 00 00
	00		 jl	 $LN14@operator
  0030b	7f 0a		 jg	 SHORT $LN28@operator
  0030d	83 7d c4 00	 cmp	 DWORD PTR __Pad$[ebp], 0
  00311	0f 86 ab 00 00
	00		 jbe	 $LN14@operator
$LN28@operator:

; 762  :                 if (_Traits::eq_int_type(_Traits::eof(), _Ostr.rdbuf()->sputc(_Ostr.fill()))) {

  00317	8b 45 08	 mov	 eax, DWORD PTR __Ostr$[ebp]
  0031a	8b 08		 mov	 ecx, DWORD PTR [eax]
  0031c	8b 55 08	 mov	 edx, DWORD PTR __Ostr$[ebp]
  0031f	03 51 04	 add	 edx, DWORD PTR [ecx+4]
  00322	8b f4		 mov	 esi, esp
  00324	8b ca		 mov	 ecx, edx
  00326	ff 15 00 00 00
	00		 call	 DWORD PTR __imp_?fill@?$basic_ios@DU?$char_traits@D@std@@@std@@QBEDXZ
  0032c	3b f4		 cmp	 esi, esp
  0032e	e8 00 00 00 00	 call	 __RTC_CheckEsp
  00333	88 85 b3 fe ff
	ff		 mov	 BYTE PTR tv289[ebp], al
  00339	8b 45 08	 mov	 eax, DWORD PTR __Ostr$[ebp]
  0033c	8b 08		 mov	 ecx, DWORD PTR [eax]
  0033e	8b 55 08	 mov	 edx, DWORD PTR __Ostr$[ebp]
  00341	03 51 04	 add	 edx, DWORD PTR [ecx+4]
  00344	8b f4		 mov	 esi, esp
  00346	8b ca		 mov	 ecx, edx
  00348	ff 15 00 00 00
	00		 call	 DWORD PTR __imp_?rdbuf@?$basic_ios@DU?$char_traits@D@std@@@std@@QBEPAV?$basic_streambuf@DU?$char_traits@D@std@@@2@XZ
  0034e	3b f4		 cmp	 esi, esp
  00350	e8 00 00 00 00	 call	 __RTC_CheckEsp
  00355	89 85 ac fe ff
	ff		 mov	 DWORD PTR tv290[ebp], eax
  0035b	8b f4		 mov	 esi, esp
  0035d	0f b6 85 b3 fe
	ff ff		 movzx	 eax, BYTE PTR tv289[ebp]
  00364	50		 push	 eax
  00365	8b 8d ac fe ff
	ff		 mov	 ecx, DWORD PTR tv290[ebp]
  0036b	ff 15 00 00 00
	00		 call	 DWORD PTR __imp_?sputc@?$basic_streambuf@DU?$char_traits@D@std@@@std@@QAEHD@Z
  00371	3b f4		 cmp	 esi, esp
  00373	e8 00 00 00 00	 call	 __RTC_CheckEsp
  00378	89 85 a8 fe ff
	ff		 mov	 DWORD PTR tv291[ebp], eax
  0037e	8b 8d a8 fe ff
	ff		 mov	 ecx, DWORD PTR tv291[ebp]
  00384	89 8d d0 fe ff
	ff		 mov	 DWORD PTR $T4[ebp], ecx
  0038a	e8 00 00 00 00	 call	 ?eof@?$_Narrow_char_traits@DH@std@@SAHXZ ; std::_Narrow_char_traits<char,int>::eof
  0038f	89 85 c4 fe ff
	ff		 mov	 DWORD PTR $T3[ebp], eax
  00395	8d 95 d0 fe ff
	ff		 lea	 edx, DWORD PTR $T4[ebp]
  0039b	52		 push	 edx
  0039c	8d 85 c4 fe ff
	ff		 lea	 eax, DWORD PTR $T3[ebp]
  003a2	50		 push	 eax
  003a3	e8 00 00 00 00	 call	 ?eq_int_type@?$_Narrow_char_traits@DH@std@@SA_NABH0@Z ; std::_Narrow_char_traits<char,int>::eq_int_type
  003a8	83 c4 08	 add	 esp, 8
  003ab	0f b6 c8	 movzx	 ecx, al
  003ae	85 c9		 test	 ecx, ecx
  003b0	74 0b		 je	 SHORT $LN15@operator

; 763  :                     _State |= ios_base::badbit; // insertion failed, quit

  003b2	8b 45 e4	 mov	 eax, DWORD PTR __State$[ebp]
  003b5	83 c8 04	 or	 eax, 4
  003b8	89 45 e4	 mov	 DWORD PTR __State$[ebp], eax

; 764  :                     break;

  003bb	eb 05		 jmp	 SHORT $LN14@operator
$LN15@operator:

; 765  :                 }
; 766  :             }

  003bd	e9 2d ff ff ff	 jmp	 $LN5@operator
$LN14@operator:

; 767  :         }
; 768  : 
; 769  :         _Ostr.width(0);

  003c2	8b f4		 mov	 esi, esp
  003c4	6a 00		 push	 0
  003c6	6a 00		 push	 0
  003c8	8b 45 08	 mov	 eax, DWORD PTR __Ostr$[ebp]
  003cb	8b 08		 mov	 ecx, DWORD PTR [eax]
  003cd	8b 55 08	 mov	 edx, DWORD PTR __Ostr$[ebp]
  003d0	03 51 04	 add	 edx, DWORD PTR [ecx+4]
  003d3	8b ca		 mov	 ecx, edx
  003d5	ff 15 00 00 00
	00		 call	 DWORD PTR __imp_?width@ios_base@std@@QAE_J_J@Z
  003db	3b f4		 cmp	 esi, esp
  003dd	e8 00 00 00 00	 call	 __RTC_CheckEsp
  003e2	eb 26		 jmp	 SHORT $LN19@operator
__catch$??$?6U?$char_traits@D@std@@@std@@YAAAV?$basic_ostream@DU?$char_traits@D@std@@@0@AAV10@PBD@Z$0:

; 770  :         _CATCH_IO_(ios_base, _Ostr)

  003e4	8b f4		 mov	 esi, esp
  003e6	6a 01		 push	 1
  003e8	6a 04		 push	 4
  003ea	8b 45 08	 mov	 eax, DWORD PTR __Ostr$[ebp]
  003ed	8b 08		 mov	 ecx, DWORD PTR [eax]
  003ef	8b 55 08	 mov	 edx, DWORD PTR __Ostr$[ebp]
  003f2	03 51 04	 add	 edx, DWORD PTR [ecx+4]
  003f5	8b ca		 mov	 ecx, edx
  003f7	ff 15 00 00 00
	00		 call	 DWORD PTR __imp_?setstate@?$basic_ios@DU?$char_traits@D@std@@@std@@QAEXH_N@Z
  003fd	3b f4		 cmp	 esi, esp
  003ff	e8 00 00 00 00	 call	 __RTC_CheckEsp
  00404	b8 00 00 00 00	 mov	 eax, $LN23@operator
  00409	c3		 ret	 0
$LN19@operator:
  0040a	c7 45 fc 00 00
	00 00		 mov	 DWORD PTR __$EHRec$[ebp+12], 0
  00411	eb 07		 jmp	 SHORT $LN9@operator
$LN23@operator:
  00413	c7 45 fc 00 00
	00 00		 mov	 DWORD PTR __$EHRec$[ebp+12], 0
$LN9@operator:

; 771  :     }
; 772  : 
; 773  :     _Ostr.setstate(_State);

  0041a	8b f4		 mov	 esi, esp
  0041c	6a 00		 push	 0
  0041e	8b 45 e4	 mov	 eax, DWORD PTR __State$[ebp]
  00421	50		 push	 eax
  00422	8b 4d 08	 mov	 ecx, DWORD PTR __Ostr$[ebp]
  00425	8b 11		 mov	 edx, DWORD PTR [ecx]
  00427	8b 4d 08	 mov	 ecx, DWORD PTR __Ostr$[ebp]
  0042a	03 4a 04	 add	 ecx, DWORD PTR [edx+4]
  0042d	ff 15 00 00 00
	00		 call	 DWORD PTR __imp_?setstate@?$basic_ios@DU?$char_traits@D@std@@@std@@QAEXH_N@Z
  00433	3b f4		 cmp	 esi, esp
  00435	e8 00 00 00 00	 call	 __RTC_CheckEsp

; 774  :     return _Ostr;

  0043a	8b 45 08	 mov	 eax, DWORD PTR __Ostr$[ebp]
  0043d	89 85 b8 fe ff
	ff		 mov	 DWORD PTR $T2[ebp], eax
  00443	c7 45 fc ff ff
	ff ff		 mov	 DWORD PTR __$EHRec$[ebp+12], -1
  0044a	8d 4d b4	 lea	 ecx, DWORD PTR __Ok$[ebp]
  0044d	e8 00 00 00 00	 call	 ??1sentry@?$basic_ostream@DU?$char_traits@D@std@@@std@@QAE@XZ ; std::basic_ostream<char,std::char_traits<char> >::sentry::~sentry
  00452	8b 85 b8 fe ff
	ff		 mov	 eax, DWORD PTR $T2[ebp]

; 775  : }

  00458	52		 push	 edx
  00459	8b cd		 mov	 ecx, ebp
  0045b	50		 push	 eax
  0045c	8d 15 00 00 00
	00		 lea	 edx, DWORD PTR $LN32@operator
  00462	e8 00 00 00 00	 call	 @_RTC_CheckStackVars@8
  00467	58		 pop	 eax
  00468	5a		 pop	 edx
  00469	8b 4d f4	 mov	 ecx, DWORD PTR __$EHRec$[ebp+4]
  0046c	64 89 0d 00 00
	00 00		 mov	 DWORD PTR fs:0, ecx
  00473	59		 pop	 ecx
  00474	5f		 pop	 edi
  00475	5e		 pop	 esi
  00476	5b		 pop	 ebx
  00477	8b 4d ec	 mov	 ecx, DWORD PTR __$ArrayPad$[ebp]
  0047a	33 cd		 xor	 ecx, ebp
  0047c	e8 00 00 00 00	 call	 @__security_check_cookie@4
  00481	81 c4 64 01 00
	00		 add	 esp, 356		; 00000164H
  00487	3b ec		 cmp	 ebp, esp
  00489	e8 00 00 00 00	 call	 __RTC_CheckEsp
  0048e	8b e5		 mov	 esp, ebp
  00490	5d		 pop	 ebp
  00491	c3		 ret	 0
  00492	66 90		 npad	 2
$LN32@operator:
  00494	01 00 00 00	 DD	 1
  00498	00 00 00 00	 DD	 $LN31@operator
$LN31@operator:
  0049c	b4 ff ff ff	 DD	 -76			; ffffffb4H
  004a0	08 00 00 00	 DD	 8
  004a4	00 00 00 00	 DD	 $LN29@operator
$LN29@operator:
  004a8	5f		 DB	 95			; 0000005fH
  004a9	4f		 DB	 79			; 0000004fH
  004aa	6b		 DB	 107			; 0000006bH
  004ab	00		 DB	 0
_TEXT	ENDS
;	COMDAT text$x
text$x	SEGMENT
__unwindfunclet$??$?6U?$char_traits@D@std@@@std@@YAAAV?$basic_ostream@DU?$char_traits@D@std@@@0@AAV10@PBD@Z$2:
  00000	8d 4d b4	 lea	 ecx, DWORD PTR __Ok$[ebp]
  00003	e9 00 00 00 00	 jmp	 ??1sentry@?$basic_ostream@DU?$char_traits@D@std@@@std@@QAE@XZ ; std::basic_ostream<char,std::char_traits<char> >::sentry::~sentry
  00008	cc		 int	 3
  00009	cc		 int	 3
  0000a	cc		 int	 3
  0000b	cc		 int	 3
  0000c	cc		 int	 3
__ehhandler$??$?6U?$char_traits@D@std@@@std@@YAAAV?$basic_ostream@DU?$char_traits@D@std@@@0@AAV10@PBD@Z:
  0000d	90		 npad	 1
  0000e	90		 npad	 1
  0000f	8b 54 24 08	 mov	 edx, DWORD PTR [esp+8]
  00013	8d 42 0c	 lea	 eax, DWORD PTR [edx+12]
  00016	8b 8a 98 fe ff
	ff		 mov	 ecx, DWORD PTR [edx-360]
  0001c	33 c8		 xor	 ecx, eax
  0001e	e8 00 00 00 00	 call	 @__security_check_cookie@4
  00023	8b 4a f8	 mov	 ecx, DWORD PTR [edx-8]
  00026	33 c8		 xor	 ecx, eax
  00028	e8 00 00 00 00	 call	 @__security_check_cookie@4
  0002d	b8 00 00 00 00	 mov	 eax, OFFSET __ehfuncinfo$??$?6U?$char_traits@D@std@@@std@@YAAAV?$basic_ostream@DU?$char_traits@D@std@@@0@AAV10@PBD@Z
  00032	e9 00 00 00 00	 jmp	 ___CxxFrameHandler3
text$x	ENDS
??$?6U?$char_traits@D@std@@@std@@YAAAV?$basic_ostream@DU?$char_traits@D@std@@@0@AAV10@PBD@Z ENDP ; std::operator<<<std::char_traits<char> >
; Function compile flags: /Odtp /RTCsu /ZI
; File C:\instit\lab\ œŒ\Leapyears\Leapyears\Leapyears.cpp
;	COMDAT _main
_TEXT	SEGMENT
tv146 = -332						; size = 4
_a$1 = -132						; size = 4
_por$ = -120						; size = 4
_data1$ = -108						; size = 4
_month1$ = -96						; size = 4
_day1$ = -84						; size = 4
_day$ = -72						; size = 4
_pust$ = -60						; size = 4
_month$ = -48						; size = 4
_data$ = -36						; size = 4
_god$ = -24						; size = 4
_c$ = -12						; size = 4
__$ArrayPad$ = -4					; size = 4
_main	PROC						; COMDAT

; 10   : {

  00000	55		 push	 ebp
  00001	8b ec		 mov	 ebp, esp
  00003	81 ec 4c 01 00
	00		 sub	 esp, 332		; 0000014cH
  00009	53		 push	 ebx
  0000a	56		 push	 esi
  0000b	57		 push	 edi
  0000c	8d bd 74 ff ff
	ff		 lea	 edi, DWORD PTR [ebp-140]
  00012	b9 23 00 00 00	 mov	 ecx, 35			; 00000023H
  00017	b8 cc cc cc cc	 mov	 eax, -858993460		; ccccccccH
  0001c	f3 ab		 rep stosd
  0001e	a1 00 00 00 00	 mov	 eax, DWORD PTR ___security_cookie
  00023	33 c5		 xor	 eax, ebp
  00025	89 45 fc	 mov	 DWORD PTR __$ArrayPad$[ebp], eax
  00028	b9 00 00 00 00	 mov	 ecx, OFFSET __98C12F10_Leapyears@cpp
  0002d	e8 00 00 00 00	 call	 @__CheckForDebuggerJustMyCode@4

; 11   : 	setlocale(LC_ALL, "Russian");

  00032	8b f4		 mov	 esi, esp
  00034	68 00 00 00 00	 push	 OFFSET ??_C@_07PEAPJBGG@Russian@
  00039	6a 00		 push	 0
  0003b	ff 15 00 00 00
	00		 call	 DWORD PTR __imp__setlocale
  00041	83 c4 08	 add	 esp, 8
  00044	3b f4		 cmp	 esi, esp
  00046	e8 00 00 00 00	 call	 __RTC_CheckEsp

; 12   : 	int c;
; 13   : 	int god, data, month, pust, day, day1, month1, data1, por = 0;

  0004b	c7 45 88 00 00
	00 00		 mov	 DWORD PTR _por$[ebp], 0

; 14   : 	cout << " –í–≤–µ–¥–∏—Ç–µ –¥–∞—Ç—É:  ";

  00052	68 00 00 00 00	 push	 OFFSET ??_C@_0BB@BCFBHNM@?5?B?b?e?d?h?r?e?5?d?$OA?r?s?3?5?5@
  00057	a1 00 00 00 00	 mov	 eax, DWORD PTR __imp_?cout@std@@3V?$basic_ostream@DU?$char_traits@D@std@@@1@A
  0005c	50		 push	 eax
  0005d	e8 00 00 00 00	 call	 ??$?6U?$char_traits@D@std@@@std@@YAAAV?$basic_ostream@DU?$char_traits@D@std@@@0@AAV10@PBD@Z ; std::operator<<<std::char_traits<char> >
  00062	83 c4 08	 add	 esp, 8

; 15   : 	cin >> data;

  00065	8b f4		 mov	 esi, esp
  00067	8d 45 dc	 lea	 eax, DWORD PTR _data$[ebp]
  0006a	50		 push	 eax
  0006b	8b 0d 00 00 00
	00		 mov	 ecx, DWORD PTR __imp_?cin@std@@3V?$basic_istream@DU?$char_traits@D@std@@@1@A
  00071	ff 15 00 00 00
	00		 call	 DWORD PTR __imp_??5?$basic_istream@DU?$char_traits@D@std@@@std@@QAEAAV01@AAH@Z
  00077	3b f4		 cmp	 esi, esp
  00079	e8 00 00 00 00	 call	 __RTC_CheckEsp

; 16   : 	pust = data;

  0007e	8b 45 dc	 mov	 eax, DWORD PTR _data$[ebp]
  00081	89 45 c4	 mov	 DWORD PTR _pust$[ebp], eax

; 17   : 	god = data % 10000;

  00084	8b 45 dc	 mov	 eax, DWORD PTR _data$[ebp]
  00087	99		 cdq
  00088	b9 10 27 00 00	 mov	 ecx, 10000		; 00002710H
  0008d	f7 f9		 idiv	 ecx
  0008f	89 55 e8	 mov	 DWORD PTR _god$[ebp], edx

; 18   : 	data = pust;

  00092	8b 45 c4	 mov	 eax, DWORD PTR _pust$[ebp]
  00095	89 45 dc	 mov	 DWORD PTR _data$[ebp], eax

; 19   : 	month = ((data - god) / 10000) % 100;

  00098	8b 45 dc	 mov	 eax, DWORD PTR _data$[ebp]
  0009b	2b 45 e8	 sub	 eax, DWORD PTR _god$[ebp]
  0009e	99		 cdq
  0009f	b9 10 27 00 00	 mov	 ecx, 10000		; 00002710H
  000a4	f7 f9		 idiv	 ecx
  000a6	99		 cdq
  000a7	b9 64 00 00 00	 mov	 ecx, 100		; 00000064H
  000ac	f7 f9		 idiv	 ecx
  000ae	89 55 d0	 mov	 DWORD PTR _month$[ebp], edx

; 20   : 	day = ((data - god) / 10000 - month) / 100;

  000b1	8b 45 dc	 mov	 eax, DWORD PTR _data$[ebp]
  000b4	2b 45 e8	 sub	 eax, DWORD PTR _god$[ebp]
  000b7	99		 cdq
  000b8	b9 10 27 00 00	 mov	 ecx, 10000		; 00002710H
  000bd	f7 f9		 idiv	 ecx
  000bf	2b 45 d0	 sub	 eax, DWORD PTR _month$[ebp]
  000c2	99		 cdq
  000c3	b9 64 00 00 00	 mov	 ecx, 100		; 00000064H
  000c8	f7 f9		 idiv	 ecx
  000ca	89 45 b8	 mov	 DWORD PTR _day$[ebp], eax

; 21   : 	if (prov(god, month, day) == 1) {

  000cd	8b 45 b8	 mov	 eax, DWORD PTR _day$[ebp]
  000d0	50		 push	 eax
  000d1	8b 4d d0	 mov	 ecx, DWORD PTR _month$[ebp]
  000d4	51		 push	 ecx
  000d5	8b 55 e8	 mov	 edx, DWORD PTR _god$[ebp]
  000d8	52		 push	 edx
  000d9	e8 00 00 00 00	 call	 ?prov@@YAHHHH@Z		; prov
  000de	83 c4 0c	 add	 esp, 12			; 0000000cH
  000e1	83 f8 01	 cmp	 eax, 1
  000e4	75 1a		 jne	 SHORT $LN7@main

; 22   : 		cout << "\n–ù–µ–∫–æ—Ä—Ä–µ–∫—Ç–Ω–æ –≤–≤–µ–¥–µ–Ω–∞ –¥–∞—Ç–∞";

  000e6	68 00 00 00 00	 push	 OFFSET ??_C@_0BK@MDIOBJCF@?6?M?e?j?n?p?p?e?j?r?m?n?5?b?b?e?d?e?m?$OA?5?d?$OA?r?$OA@
  000eb	a1 00 00 00 00	 mov	 eax, DWORD PTR __imp_?cout@std@@3V?$basic_ostream@DU?$char_traits@D@std@@@1@A
  000f0	50		 push	 eax
  000f1	e8 00 00 00 00	 call	 ??$?6U?$char_traits@D@std@@@std@@YAAAV?$basic_ostream@DU?$char_traits@D@std@@@0@AAV10@PBD@Z ; std::operator<<<std::char_traits<char> >
  000f6	83 c4 08	 add	 esp, 8

; 23   : 		return 0;

  000f9	33 c0		 xor	 eax, eax
  000fb	e9 77 02 00 00	 jmp	 $LN13@main
$LN7@main:

; 24   : 	}
; 25   : 	visok_god(god);

  00100	8b 45 e8	 mov	 eax, DWORD PTR _god$[ebp]
  00103	50		 push	 eax
  00104	e8 00 00 00 00	 call	 ?visok_god@@YAXH@Z	; visok_god
  00109	83 c4 04	 add	 esp, 4
$LN4@main:

; 26   : 	do
; 27   : 	{
; 28   : 		cout << endl;

  0010c	8b f4		 mov	 esi, esp
  0010e	68 00 00 00 00	 push	 OFFSET ??$endl@DU?$char_traits@D@std@@@std@@YAAAV?$basic_ostream@DU?$char_traits@D@std@@@0@AAV10@@Z ; std::endl<char,std::char_traits<char> >
  00113	8b 0d 00 00 00
	00		 mov	 ecx, DWORD PTR __imp_?cout@std@@3V?$basic_ostream@DU?$char_traits@D@std@@@1@A
  00119	ff 15 00 00 00
	00		 call	 DWORD PTR __imp_??6?$basic_ostream@DU?$char_traits@D@std@@@std@@QAEAAV01@P6AAAV01@AAV01@@Z@Z
  0011f	3b f4		 cmp	 esi, esp
  00121	e8 00 00 00 00	 call	 __RTC_CheckEsp

; 29   : 		cout << "–í–≤–µ–¥–∏—Ç–µ" << endl;

  00126	8b f4		 mov	 esi, esp
  00128	68 00 00 00 00	 push	 OFFSET ??$endl@DU?$char_traits@D@std@@@std@@YAAAV?$basic_ostream@DU?$char_traits@D@std@@@0@AAV10@@Z ; std::endl<char,std::char_traits<char> >
  0012d	68 00 00 00 00	 push	 OFFSET ??_C@_07CLDOPFAM@?B?b?e?d?h?r?e@
  00132	a1 00 00 00 00	 mov	 eax, DWORD PTR __imp_?cout@std@@3V?$basic_ostream@DU?$char_traits@D@std@@@1@A
  00137	50		 push	 eax
  00138	e8 00 00 00 00	 call	 ??$?6U?$char_traits@D@std@@@std@@YAAAV?$basic_ostream@DU?$char_traits@D@std@@@0@AAV10@PBD@Z ; std::operator<<<std::char_traits<char> >
  0013d	83 c4 08	 add	 esp, 8
  00140	8b c8		 mov	 ecx, eax
  00142	ff 15 00 00 00
	00		 call	 DWORD PTR __imp_??6?$basic_ostream@DU?$char_traits@D@std@@@std@@QAEAAV01@P6AAAV01@AAV01@@Z@Z
  00148	3b f4		 cmp	 esi, esp
  0014a	e8 00 00 00 00	 call	 __RTC_CheckEsp

; 30   : 		cout << "1-–æ–ø—Ä–µ–¥–µ–ª–∏—Ç—å, —è–≤–ª—è–µ—Ç—Å—è –ª–∏ –≤–≤–µ–¥–µ–Ω–Ω—ã–π –≥–æ–¥ –ì–ì–ì–ì –≤–∏—Å–æ–∫–æ—Å–Ω—ã–º" << endl;

  0014f	8b f4		 mov	 esi, esp
  00151	68 00 00 00 00	 push	 OFFSET ??$endl@DU?$char_traits@D@std@@@std@@YAAAV?$basic_ostream@DU?$char_traits@D@std@@@0@AAV10@@Z ; std::endl<char,std::char_traits<char> >
  00156	68 00 00 00 00	 push	 OFFSET ??_C@_0DI@JBEJIHMI@1?9?n?o?p?e?d?e?k?h?r?$PM?0?5?$PP?b?k?$PP?e?r?q?$PP?5?k?h?5?b?b?e?d?e@
  0015b	a1 00 00 00 00	 mov	 eax, DWORD PTR __imp_?cout@std@@3V?$basic_ostream@DU?$char_traits@D@std@@@1@A
  00160	50		 push	 eax
  00161	e8 00 00 00 00	 call	 ??$?6U?$char_traits@D@std@@@std@@YAAAV?$basic_ostream@DU?$char_traits@D@std@@@0@AAV10@PBD@Z ; std::operator<<<std::char_traits<char> >
  00166	83 c4 08	 add	 esp, 8
  00169	8b c8		 mov	 ecx, eax
  0016b	ff 15 00 00 00
	00		 call	 DWORD PTR __imp_??6?$basic_ostream@DU?$char_traits@D@std@@@std@@QAEAAV01@P6AAAV01@AAV01@@Z@Z
  00171	3b f4		 cmp	 esi, esp
  00173	e8 00 00 00 00	 call	 __RTC_CheckEsp

; 31   : 		cout << "2-–≤—ã—á–∏—Å–ª–∏—Ç—å –ø–æ—Ä—è–¥–∫–æ–≤—ã–π –Ω–æ–º–µ—Ä –≤–≤–µ–¥–µ–Ω–Ω–æ–≥–æ –¥–Ω—è –≤ –≥–æ–¥—É –ì–ì–ì–ì" << endl;

  00178	8b f4		 mov	 esi, esp
  0017a	68 00 00 00 00	 push	 OFFSET ??$endl@DU?$char_traits@D@std@@@std@@YAAAV?$basic_ostream@DU?$char_traits@D@std@@@0@AAV10@@Z ; std::endl<char,std::char_traits<char> >
  0017f	68 00 00 00 00	 push	 OFFSET ??_C@_0DI@IINHBCLJ@2?9?b?$PL?w?h?q?k?h?r?$PM?5?o?n?p?$PP?d?j?n?b?$PL?i?5?m?n?l?e?p?5?b?b@
  00184	a1 00 00 00 00	 mov	 eax, DWORD PTR __imp_?cout@std@@3V?$basic_ostream@DU?$char_traits@D@std@@@1@A
  00189	50		 push	 eax
  0018a	e8 00 00 00 00	 call	 ??$?6U?$char_traits@D@std@@@std@@YAAAV?$basic_ostream@DU?$char_traits@D@std@@@0@AAV10@PBD@Z ; std::operator<<<std::char_traits<char> >
  0018f	83 c4 08	 add	 esp, 8
  00192	8b c8		 mov	 ecx, eax
  00194	ff 15 00 00 00
	00		 call	 DWORD PTR __imp_??6?$basic_ostream@DU?$char_traits@D@std@@@std@@QAEAAV01@P6AAAV01@AAV01@@Z@Z
  0019a	3b f4		 cmp	 esi, esp
  0019c	e8 00 00 00 00	 call	 __RTC_CheckEsp

; 32   : 		cout << "3-–≤—ã—á–∏—Å–ª–∏—Ç—å —Å–∫–æ–ª—å–∫–æ –¥–Ω–µ–π –æ—Å—Ç–∞–ª–æ—Å—å –¥–æ –±–ª–∏–∂–∞–π—à–µ–≥–æ –¥–Ω—è –≤–∞—à–µ–≥o —Ä–æ–∂–¥–µ–Ω–∏—è" << endl;

  001a1	8b f4		 mov	 esi, esp
  001a3	68 00 00 00 00	 push	 OFFSET ??$endl@DU?$char_traits@D@std@@@std@@YAAAV?$basic_ostream@DU?$char_traits@D@std@@@0@AAV10@@Z ; std::endl<char,std::char_traits<char> >
  001a8	68 00 00 00 00	 push	 OFFSET ??_C@_0EE@GLEFEPOP@3?9?b?$PL?w?h?q?k?h?r?$PM?5?q?j?n?k?$PM?j?n?5?d?m?e?i?5?n?q?r?$OA?k?n@
  001ad	a1 00 00 00 00	 mov	 eax, DWORD PTR __imp_?cout@std@@3V?$basic_ostream@DU?$char_traits@D@std@@@1@A
  001b2	50		 push	 eax
  001b3	e8 00 00 00 00	 call	 ??$?6U?$char_traits@D@std@@@std@@YAAAV?$basic_ostream@DU?$char_traits@D@std@@@0@AAV10@PBD@Z ; std::operator<<<std::char_traits<char> >
  001b8	83 c4 08	 add	 esp, 8
  001bb	8b c8		 mov	 ecx, eax
  001bd	ff 15 00 00 00
	00		 call	 DWORD PTR __imp_??6?$basic_ostream@DU?$char_traits@D@std@@@std@@QAEAAV01@P6AAAV01@AAV01@@Z@Z
  001c3	3b f4		 cmp	 esi, esp
  001c5	e8 00 00 00 00	 call	 __RTC_CheckEsp

; 33   : 		cout << "4-–≤—ã—Ö–æ–¥" << endl;

  001ca	8b f4		 mov	 esi, esp
  001cc	68 00 00 00 00	 push	 OFFSET ??$endl@DU?$char_traits@D@std@@@std@@YAAAV?$basic_ostream@DU?$char_traits@D@std@@@0@AAV10@@Z ; std::endl<char,std::char_traits<char> >
  001d1	68 00 00 00 00	 push	 OFFSET ??_C@_07HJIONDFP@4?9?b?$PL?u?n?d@
  001d6	a1 00 00 00 00	 mov	 eax, DWORD PTR __imp_?cout@std@@3V?$basic_ostream@DU?$char_traits@D@std@@@1@A
  001db	50		 push	 eax
  001dc	e8 00 00 00 00	 call	 ??$?6U?$char_traits@D@std@@@std@@YAAAV?$basic_ostream@DU?$char_traits@D@std@@@0@AAV10@PBD@Z ; std::operator<<<std::char_traits<char> >
  001e1	83 c4 08	 add	 esp, 8
  001e4	8b c8		 mov	 ecx, eax
  001e6	ff 15 00 00 00
	00		 call	 DWORD PTR __imp_??6?$basic_ostream@DU?$char_traits@D@std@@@std@@QAEAAV01@P6AAAV01@AAV01@@Z@Z
  001ec	3b f4		 cmp	 esi, esp
  001ee	e8 00 00 00 00	 call	 __RTC_CheckEsp

; 34   : 		cin >> c;

  001f3	8b f4		 mov	 esi, esp
  001f5	8d 45 f4	 lea	 eax, DWORD PTR _c$[ebp]
  001f8	50		 push	 eax
  001f9	8b 0d 00 00 00
	00		 mov	 ecx, DWORD PTR __imp_?cin@std@@3V?$basic_istream@DU?$char_traits@D@std@@@1@A
  001ff	ff 15 00 00 00
	00		 call	 DWORD PTR __imp_??5?$basic_istream@DU?$char_traits@D@std@@@std@@QAEAAV01@AAH@Z
  00205	3b f4		 cmp	 esi, esp
  00207	e8 00 00 00 00	 call	 __RTC_CheckEsp

; 35   : 		switch (c)

  0020c	8b 45 f4	 mov	 eax, DWORD PTR _c$[ebp]
  0020f	89 85 b4 fe ff
	ff		 mov	 DWORD PTR tv146[ebp], eax
  00215	83 bd b4 fe ff
	ff 01		 cmp	 DWORD PTR tv146[ebp], 1
  0021c	74 17		 je	 SHORT $LN8@main
  0021e	83 bd b4 fe ff
	ff 02		 cmp	 DWORD PTR tv146[ebp], 2
  00225	74 26		 je	 SHORT $LN9@main
  00227	83 bd b4 fe ff
	ff 03		 cmp	 DWORD PTR tv146[ebp], 3
  0022e	74 63		 je	 SHORT $LN10@main
  00230	e9 32 01 00 00	 jmp	 $LN2@main
$LN8@main:

; 36   : 		{
; 37   : 		case 1:
; 38   : 			cout << vis;

  00235	68 00 00 00 00	 push	 OFFSET ?vis@@3V?$basic_string@DU?$char_traits@D@std@@V?$allocator@D@2@@std@@A ; vis
  0023a	a1 00 00 00 00	 mov	 eax, DWORD PTR __imp_?cout@std@@3V?$basic_ostream@DU?$char_traits@D@std@@@1@A
  0023f	50		 push	 eax
  00240	e8 00 00 00 00	 call	 ??$?6DU?$char_traits@D@std@@V?$allocator@D@1@@std@@YAAAV?$basic_ostream@DU?$char_traits@D@std@@@0@AAV10@ABV?$basic_string@DU?$char_traits@D@std@@V?$allocator@D@2@@0@@Z ; std::operator<<<char,std::char_traits<char>,std::allocator<char> >
  00245	83 c4 08	 add	 esp, 8

; 39   : 			break;

  00248	e9 1a 01 00 00	 jmp	 $LN2@main
$LN9@main:

; 40   : 		case 2:
; 41   : 			por = count(day, month, mes);

  0024d	68 00 00 00 00	 push	 OFFSET ?mes@@3PAHA	; mes
  00252	8b 45 d0	 mov	 eax, DWORD PTR _month$[ebp]
  00255	50		 push	 eax
  00256	8b 4d b8	 mov	 ecx, DWORD PTR _day$[ebp]
  00259	51		 push	 ecx
  0025a	e8 00 00 00 00	 call	 ?count@@YAHHHQAH@Z	; count
  0025f	83 c4 0c	 add	 esp, 12			; 0000000cH
  00262	89 45 88	 mov	 DWORD PTR _por$[ebp], eax

; 42   : 			cout << " –ø–æ—Ä—è–¥–∫–æ–≤—ã–π –Ω–æ–º–µ—Ä: " << por;

  00265	8b f4		 mov	 esi, esp
  00267	8b 45 88	 mov	 eax, DWORD PTR _por$[ebp]
  0026a	50		 push	 eax
  0026b	68 00 00 00 00	 push	 OFFSET ??_C@_0BE@GDJPIMPF@?5?o?n?p?$PP?d?j?n?b?$PL?i?5?m?n?l?e?p?3?5@
  00270	8b 0d 00 00 00
	00		 mov	 ecx, DWORD PTR __imp_?cout@std@@3V?$basic_ostream@DU?$char_traits@D@std@@@1@A
  00276	51		 push	 ecx
  00277	e8 00 00 00 00	 call	 ??$?6U?$char_traits@D@std@@@std@@YAAAV?$basic_ostream@DU?$char_traits@D@std@@@0@AAV10@PBD@Z ; std::operator<<<std::char_traits<char> >
  0027c	83 c4 08	 add	 esp, 8
  0027f	8b c8		 mov	 ecx, eax
  00281	ff 15 00 00 00
	00		 call	 DWORD PTR __imp_??6?$basic_ostream@DU?$char_traits@D@std@@@std@@QAEAAV01@H@Z
  00287	3b f4		 cmp	 esi, esp
  00289	e8 00 00 00 00	 call	 __RTC_CheckEsp

; 43   : 			break;

  0028e	e9 d4 00 00 00	 jmp	 $LN2@main
$LN10@main:

; 44   : 
; 45   : 		case 3:
; 46   : 			cout << "–í–≤–µ–¥–∏—Ç–µ –¥–∞—Ç—É –∏ –º–µ—Å—è—Ü –¥–Ω—è —Ä–æ–∂–¥–µ–Ω–∏—è: ";

  00293	68 00 00 00 00	 push	 OFFSET ??_C@_0CE@ENCNGIEO@?B?b?e?d?h?r?e?5?d?$OA?r?s?5?h?5?l?e?q?$PP?v?5?d?m?$PP?5?p?n?f?d?e?m@
  00298	a1 00 00 00 00	 mov	 eax, DWORD PTR __imp_?cout@std@@3V?$basic_ostream@DU?$char_traits@D@std@@@1@A
  0029d	50		 push	 eax
  0029e	e8 00 00 00 00	 call	 ??$?6U?$char_traits@D@std@@@std@@YAAAV?$basic_ostream@DU?$char_traits@D@std@@@0@AAV10@PBD@Z ; std::operator<<<std::char_traits<char> >
  002a3	83 c4 08	 add	 esp, 8

; 47   : 			cin >> data1;

  002a6	8b f4		 mov	 esi, esp
  002a8	8d 45 94	 lea	 eax, DWORD PTR _data1$[ebp]
  002ab	50		 push	 eax
  002ac	8b 0d 00 00 00
	00		 mov	 ecx, DWORD PTR __imp_?cin@std@@3V?$basic_istream@DU?$char_traits@D@std@@@1@A
  002b2	ff 15 00 00 00
	00		 call	 DWORD PTR __imp_??5?$basic_istream@DU?$char_traits@D@std@@@std@@QAEAAV01@AAH@Z
  002b8	3b f4		 cmp	 esi, esp
  002ba	e8 00 00 00 00	 call	 __RTC_CheckEsp

; 48   : 			pust = data1;

  002bf	8b 45 94	 mov	 eax, DWORD PTR _data1$[ebp]
  002c2	89 45 c4	 mov	 DWORD PTR _pust$[ebp], eax

; 49   : 			month1 = data1 % 100;

  002c5	8b 45 94	 mov	 eax, DWORD PTR _data1$[ebp]
  002c8	99		 cdq
  002c9	b9 64 00 00 00	 mov	 ecx, 100		; 00000064H
  002ce	f7 f9		 idiv	 ecx
  002d0	89 55 a0	 mov	 DWORD PTR _month1$[ebp], edx

; 50   : 			day1 = (pust - month1) / 100;

  002d3	8b 45 c4	 mov	 eax, DWORD PTR _pust$[ebp]
  002d6	2b 45 a0	 sub	 eax, DWORD PTR _month1$[ebp]
  002d9	99		 cdq
  002da	b9 64 00 00 00	 mov	 ecx, 100		; 00000064H
  002df	f7 f9		 idiv	 ecx
  002e1	89 45 ac	 mov	 DWORD PTR _day1$[ebp], eax

; 51   : 			if (prov(god, month1, day1) == 1) {

  002e4	8b 45 ac	 mov	 eax, DWORD PTR _day1$[ebp]
  002e7	50		 push	 eax
  002e8	8b 4d a0	 mov	 ecx, DWORD PTR _month1$[ebp]
  002eb	51		 push	 ecx
  002ec	8b 55 e8	 mov	 edx, DWORD PTR _god$[ebp]
  002ef	52		 push	 edx
  002f0	e8 00 00 00 00	 call	 ?prov@@YAHHHH@Z		; prov
  002f5	83 c4 0c	 add	 esp, 12			; 0000000cH
  002f8	83 f8 01	 cmp	 eax, 1
  002fb	75 17		 jne	 SHORT $LN11@main

; 52   : 				cout << "\n–ù–µ–∫–æ—Ä—Ä–µ–∫—Ç–Ω–æ –≤–≤–µ–¥–µ–Ω–∞ –¥–∞—Ç–∞";

  002fd	68 00 00 00 00	 push	 OFFSET ??_C@_0BK@MDIOBJCF@?6?M?e?j?n?p?p?e?j?r?m?n?5?b?b?e?d?e?m?$OA?5?d?$OA?r?$OA@
  00302	a1 00 00 00 00	 mov	 eax, DWORD PTR __imp_?cout@std@@3V?$basic_ostream@DU?$char_traits@D@std@@@1@A
  00307	50		 push	 eax
  00308	e8 00 00 00 00	 call	 ??$?6U?$char_traits@D@std@@@std@@YAAAV?$basic_ostream@DU?$char_traits@D@std@@@0@AAV10@PBD@Z ; std::operator<<<std::char_traits<char> >
  0030d	83 c4 08	 add	 esp, 8

; 53   : 				return 0;

  00310	33 c0		 xor	 eax, eax
  00312	eb 63		 jmp	 SHORT $LN13@main
$LN11@main:

; 54   : 			}
; 55   : 			int a = count(day1, month1, mes); //–∫–∞–∫–æ–π –Ω–æ–º–µ—Ä –Ω–∞—à–µ–≥–æ –¥–Ω—è —Ä–æ–∂–¥–µ–Ω–∏—è

  00314	68 00 00 00 00	 push	 OFFSET ?mes@@3PAHA	; mes
  00319	8b 45 a0	 mov	 eax, DWORD PTR _month1$[ebp]
  0031c	50		 push	 eax
  0031d	8b 4d ac	 mov	 ecx, DWORD PTR _day1$[ebp]
  00320	51		 push	 ecx
  00321	e8 00 00 00 00	 call	 ?count@@YAHHHQAH@Z	; count
  00326	83 c4 0c	 add	 esp, 12			; 0000000cH
  00329	89 85 7c ff ff
	ff		 mov	 DWORD PTR _a$1[ebp], eax

; 56   : 			cout << "–î–æ –¥–Ω—è —Ä–æ–∂–¥–µ–Ω–∏—è –æ—Å—Ç–∞–ª–æ—Å—å: " << abs(a - por);

  0032f	8b 85 7c ff ff
	ff		 mov	 eax, DWORD PTR _a$1[ebp]
  00335	2b 45 88	 sub	 eax, DWORD PTR _por$[ebp]
  00338	50		 push	 eax
  00339	e8 00 00 00 00	 call	 _abs
  0033e	83 c4 04	 add	 esp, 4
  00341	8b f4		 mov	 esi, esp
  00343	50		 push	 eax
  00344	68 00 00 00 00	 push	 OFFSET ??_C@_0BL@KMDPNDAB@?D?n?5?d?m?$PP?5?p?n?f?d?e?m?h?$PP?5?n?q?r?$OA?k?n?q?$PM?3?5@
  00349	8b 0d 00 00 00
	00		 mov	 ecx, DWORD PTR __imp_?cout@std@@3V?$basic_ostream@DU?$char_traits@D@std@@@1@A
  0034f	51		 push	 ecx
  00350	e8 00 00 00 00	 call	 ??$?6U?$char_traits@D@std@@@std@@YAAAV?$basic_ostream@DU?$char_traits@D@std@@@0@AAV10@PBD@Z ; std::operator<<<std::char_traits<char> >
  00355	83 c4 08	 add	 esp, 8
  00358	8b c8		 mov	 ecx, eax
  0035a	ff 15 00 00 00
	00		 call	 DWORD PTR __imp_??6?$basic_ostream@DU?$char_traits@D@std@@@std@@QAEAAV01@H@Z
  00360	3b f4		 cmp	 esi, esp
  00362	e8 00 00 00 00	 call	 __RTC_CheckEsp
$LN2@main:

; 57   : 			break;
; 58   : 		}
; 59   : 	} while (c != 4);

  00367	83 7d f4 04	 cmp	 DWORD PTR _c$[ebp], 4
  0036b	0f 85 9b fd ff
	ff		 jne	 $LN4@main

; 60   : }

  00371	eb 02		 jmp	 SHORT $LN14@main
  00373	eb 02		 jmp	 SHORT $LN13@main
$LN14@main:
  00375	33 c0		 xor	 eax, eax
$LN13@main:
  00377	52		 push	 edx
  00378	8b cd		 mov	 ecx, ebp
  0037a	50		 push	 eax
  0037b	8d 15 00 00 00
	00		 lea	 edx, DWORD PTR $LN19@main
  00381	e8 00 00 00 00	 call	 @_RTC_CheckStackVars@8
  00386	58		 pop	 eax
  00387	5a		 pop	 edx
  00388	5f		 pop	 edi
  00389	5e		 pop	 esi
  0038a	5b		 pop	 ebx
  0038b	8b 4d fc	 mov	 ecx, DWORD PTR __$ArrayPad$[ebp]
  0038e	33 cd		 xor	 ecx, ebp
  00390	e8 00 00 00 00	 call	 @__security_check_cookie@4
  00395	81 c4 4c 01 00
	00		 add	 esp, 332		; 0000014cH
  0039b	3b ec		 cmp	 ebp, esp
  0039d	e8 00 00 00 00	 call	 __RTC_CheckEsp
  003a2	8b e5		 mov	 esp, ebp
  003a4	5d		 pop	 ebp
  003a5	c3		 ret	 0
  003a6	66 90		 npad	 2
$LN19@main:
  003a8	03 00 00 00	 DD	 3
  003ac	00 00 00 00	 DD	 $LN18@main
$LN18@main:
  003b0	f4 ff ff ff	 DD	 -12			; fffffff4H
  003b4	04 00 00 00	 DD	 4
  003b8	00 00 00 00	 DD	 $LN15@main
  003bc	dc ff ff ff	 DD	 -36			; ffffffdcH
  003c0	04 00 00 00	 DD	 4
  003c4	00 00 00 00	 DD	 $LN16@main
  003c8	94 ff ff ff	 DD	 -108			; ffffff94H
  003cc	04 00 00 00	 DD	 4
  003d0	00 00 00 00	 DD	 $LN17@main
$LN17@main:
  003d4	64		 DB	 100			; 00000064H
  003d5	61		 DB	 97			; 00000061H
  003d6	74		 DB	 116			; 00000074H
  003d7	61		 DB	 97			; 00000061H
  003d8	31		 DB	 49			; 00000031H
  003d9	00		 DB	 0
$LN16@main:
  003da	64		 DB	 100			; 00000064H
  003db	61		 DB	 97			; 00000061H
  003dc	74		 DB	 116			; 00000074H
  003dd	61		 DB	 97			; 00000061H
  003de	00		 DB	 0
$LN15@main:
  003df	63		 DB	 99			; 00000063H
  003e0	00		 DB	 0
_main	ENDP
_TEXT	ENDS
; Function compile flags: /Odtp /RTCsu /ZI
; File C:\instit\lab\ œŒ\Leapyears\Leapyears\Leapyears.cpp
;	COMDAT ?visok_god@@YAXH@Z
_TEXT	SEGMENT
_god$ = 8						; size = 4
?visok_god@@YAXH@Z PROC					; visok_god, COMDAT

; 77   : void visok_god(int god) {

  00000	55		 push	 ebp
  00001	8b ec		 mov	 ebp, esp
  00003	81 ec c0 00 00
	00		 sub	 esp, 192		; 000000c0H
  00009	53		 push	 ebx
  0000a	56		 push	 esi
  0000b	57		 push	 edi
  0000c	8b fd		 mov	 edi, ebp
  0000e	33 c9		 xor	 ecx, ecx
  00010	b8 cc cc cc cc	 mov	 eax, -858993460		; ccccccccH
  00015	f3 ab		 rep stosd
  00017	b9 00 00 00 00	 mov	 ecx, OFFSET __98C12F10_Leapyears@cpp
  0001c	e8 00 00 00 00	 call	 @__CheckForDebuggerJustMyCode@4

; 78   : 	if (god % 4 != 0 || (god % 100 == 0 && god % 400 != 0)) {

  00021	8b 45 08	 mov	 eax, DWORD PTR _god$[ebp]
  00024	25 03 00 00 80	 and	 eax, -2147483645	; 80000003H
  00029	79 05		 jns	 SHORT $LN6@visok_god
  0002b	48		 dec	 eax
  0002c	83 c8 fc	 or	 eax, -4			; fffffffcH
  0002f	40		 inc	 eax
$LN6@visok_god:
  00030	85 c0		 test	 eax, eax
  00032	75 1e		 jne	 SHORT $LN4@visok_god
  00034	8b 45 08	 mov	 eax, DWORD PTR _god$[ebp]
  00037	99		 cdq
  00038	b9 64 00 00 00	 mov	 ecx, 100		; 00000064H
  0003d	f7 f9		 idiv	 ecx
  0003f	85 d2		 test	 edx, edx
  00041	75 20		 jne	 SHORT $LN2@visok_god
  00043	8b 45 08	 mov	 eax, DWORD PTR _god$[ebp]
  00046	99		 cdq
  00047	b9 90 01 00 00	 mov	 ecx, 400		; 00000190H
  0004c	f7 f9		 idiv	 ecx
  0004e	85 d2		 test	 edx, edx
  00050	74 11		 je	 SHORT $LN2@visok_god
$LN4@visok_god:

; 79   : 		vis = " –ù–µ –≤–∏—Å–æ–∫–æ—Å–Ω—ã–π –≥–æ–¥ ";

  00052	68 00 00 00 00	 push	 OFFSET ??_C@_0BE@LKGFEEBC@?5?M?e?5?b?h?q?n?j?n?q?m?$PL?i?5?c?n?d?5@
  00057	b9 00 00 00 00	 mov	 ecx, OFFSET ?vis@@3V?$basic_string@DU?$char_traits@D@std@@V?$allocator@D@2@@std@@A ; vis
  0005c	e8 00 00 00 00	 call	 ??4?$basic_string@DU?$char_traits@D@std@@V?$allocator@D@2@@std@@QAEAAV01@QBD@Z ; std::basic_string<char,std::char_traits<char>,std::allocator<char> >::operator=

; 80   : 	}

  00061	eb 2e		 jmp	 SHORT $LN1@visok_god
$LN2@visok_god:

; 81   : 	else {
; 82   : 		vis = "–í–∏—Å–æ–∫–æ—Å–Ω—ã–π –≥–æ–¥ ";

  00063	68 00 00 00 00	 push	 OFFSET ??_C@_0BA@DHADGGDH@?B?h?q?n?j?n?q?m?$PL?i?5?c?n?d?5@
  00068	b9 00 00 00 00	 mov	 ecx, OFFSET ?vis@@3V?$basic_string@DU?$char_traits@D@std@@V?$allocator@D@2@@std@@A ; vis
  0006d	e8 00 00 00 00	 call	 ??4?$basic_string@DU?$char_traits@D@std@@V?$allocator@D@2@@std@@QAEAAV01@QBD@Z ; std::basic_string<char,std::char_traits<char>,std::allocator<char> >::operator=

; 83   : 		mes[1]++;

  00072	b8 04 00 00 00	 mov	 eax, 4
  00077	c1 e0 00	 shl	 eax, 0
  0007a	8b 88 00 00 00
	00		 mov	 ecx, DWORD PTR ?mes@@3PAHA[eax]
  00080	83 c1 01	 add	 ecx, 1
  00083	ba 04 00 00 00	 mov	 edx, 4
  00088	c1 e2 00	 shl	 edx, 0
  0008b	89 8a 00 00 00
	00		 mov	 DWORD PTR ?mes@@3PAHA[edx], ecx
$LN1@visok_god:

; 84   : 	}
; 85   : }

  00091	5f		 pop	 edi
  00092	5e		 pop	 esi
  00093	5b		 pop	 ebx
  00094	81 c4 c0 00 00
	00		 add	 esp, 192		; 000000c0H
  0009a	3b ec		 cmp	 ebp, esp
  0009c	e8 00 00 00 00	 call	 __RTC_CheckEsp
  000a1	8b e5		 mov	 esp, ebp
  000a3	5d		 pop	 ebp
  000a4	c3		 ret	 0
?visok_god@@YAXH@Z ENDP					; visok_god
_TEXT	ENDS
; Function compile flags: /Odtp /RTCsu /ZI
; File C:\instit\lab\ œŒ\Leapyears\Leapyears\Leapyears.cpp
;	COMDAT ?prov@@YAHHHH@Z
_TEXT	SEGMENT
_a$ = -8						; size = 4
_god$ = 8						; size = 4
_month$ = 12						; size = 4
_day$ = 16						; size = 4
?prov@@YAHHHH@Z PROC					; prov, COMDAT

; 62   : int prov(int god, int month, int day) {

  00000	55		 push	 ebp
  00001	8b ec		 mov	 ebp, esp
  00003	81 ec cc 00 00
	00		 sub	 esp, 204		; 000000ccH
  00009	53		 push	 ebx
  0000a	56		 push	 esi
  0000b	57		 push	 edi
  0000c	8d 7d f4	 lea	 edi, DWORD PTR [ebp-12]
  0000f	b9 03 00 00 00	 mov	 ecx, 3
  00014	b8 cc cc cc cc	 mov	 eax, -858993460		; ccccccccH
  00019	f3 ab		 rep stosd
  0001b	b9 00 00 00 00	 mov	 ecx, OFFSET __98C12F10_Leapyears@cpp
  00020	e8 00 00 00 00	 call	 @__CheckForDebuggerJustMyCode@4

; 63   : 	int a = 0;

  00025	c7 45 f8 00 00
	00 00		 mov	 DWORD PTR _a$[ebp], 0

; 64   : 	if (god <= 1000 || month <= 00 || month >= 13 || day <= 00 || day > mes[month - 1])

  0002c	81 7d 08 e8 03
	00 00		 cmp	 DWORD PTR _god$[ebp], 1000 ; 000003e8H
  00033	7e 21		 jle	 SHORT $LN3@prov
  00035	83 7d 0c 00	 cmp	 DWORD PTR _month$[ebp], 0
  00039	7e 1b		 jle	 SHORT $LN3@prov
  0003b	83 7d 0c 0d	 cmp	 DWORD PTR _month$[ebp], 13 ; 0000000dH
  0003f	7d 15		 jge	 SHORT $LN3@prov
  00041	83 7d 10 00	 cmp	 DWORD PTR _day$[ebp], 0
  00045	7e 0f		 jle	 SHORT $LN3@prov
  00047	8b 45 0c	 mov	 eax, DWORD PTR _month$[ebp]
  0004a	8b 4d 10	 mov	 ecx, DWORD PTR _day$[ebp]
  0004d	3b 0c 85 fc ff
	ff ff		 cmp	 ecx, DWORD PTR ?mes@@3PAHA[eax*4-4]
  00054	7e 07		 jle	 SHORT $LN2@prov
$LN3@prov:

; 65   : 		a = 1;

  00056	c7 45 f8 01 00
	00 00		 mov	 DWORD PTR _a$[ebp], 1
$LN2@prov:

; 66   : 	return (a);

  0005d	8b 45 f8	 mov	 eax, DWORD PTR _a$[ebp]

; 67   : }

  00060	5f		 pop	 edi
  00061	5e		 pop	 esi
  00062	5b		 pop	 ebx
  00063	81 c4 cc 00 00
	00		 add	 esp, 204		; 000000ccH
  00069	3b ec		 cmp	 ebp, esp
  0006b	e8 00 00 00 00	 call	 __RTC_CheckEsp
  00070	8b e5		 mov	 esp, ebp
  00072	5d		 pop	 ebp
  00073	c3		 ret	 0
?prov@@YAHHHH@Z ENDP					; prov
_TEXT	ENDS
; Function compile flags: /Odtp /RTCsu /ZI
; File C:\instit\lab\ œŒ\Leapyears\Leapyears\Leapyears.cpp
;	COMDAT ?count@@YAHHHQAH@Z
_TEXT	SEGMENT
_i$1 = -20						; size = 4
_por$ = -8						; size = 4
_day$ = 8						; size = 4
_month$ = 12						; size = 4
_mes$ = 16						; size = 4
?count@@YAHHHQAH@Z PROC					; count, COMDAT

; 69   : int count(int day, int month, int mes[]) {

  00000	55		 push	 ebp
  00001	8b ec		 mov	 ebp, esp
  00003	81 ec d8 00 00
	00		 sub	 esp, 216		; 000000d8H
  00009	53		 push	 ebx
  0000a	56		 push	 esi
  0000b	57		 push	 edi
  0000c	8d 7d e8	 lea	 edi, DWORD PTR [ebp-24]
  0000f	b9 06 00 00 00	 mov	 ecx, 6
  00014	b8 cc cc cc cc	 mov	 eax, -858993460		; ccccccccH
  00019	f3 ab		 rep stosd
  0001b	b9 00 00 00 00	 mov	 ecx, OFFSET __98C12F10_Leapyears@cpp
  00020	e8 00 00 00 00	 call	 @__CheckForDebuggerJustMyCode@4

; 70   : 	int por = 0;

  00025	c7 45 f8 00 00
	00 00		 mov	 DWORD PTR _por$[ebp], 0

; 71   : 	for (int i = 0; i < month - 1; i++)

  0002c	c7 45 ec 00 00
	00 00		 mov	 DWORD PTR _i$1[ebp], 0
  00033	eb 09		 jmp	 SHORT $LN4@count
$LN2@count:
  00035	8b 45 ec	 mov	 eax, DWORD PTR _i$1[ebp]
  00038	83 c0 01	 add	 eax, 1
  0003b	89 45 ec	 mov	 DWORD PTR _i$1[ebp], eax
$LN4@count:
  0003e	8b 45 0c	 mov	 eax, DWORD PTR _month$[ebp]
  00041	83 e8 01	 sub	 eax, 1
  00044	39 45 ec	 cmp	 DWORD PTR _i$1[ebp], eax
  00047	7d 11		 jge	 SHORT $LN3@count

; 72   : 		por += mes[i];

  00049	8b 45 ec	 mov	 eax, DWORD PTR _i$1[ebp]
  0004c	8b 4d 10	 mov	 ecx, DWORD PTR _mes$[ebp]
  0004f	8b 55 f8	 mov	 edx, DWORD PTR _por$[ebp]
  00052	03 14 81	 add	 edx, DWORD PTR [ecx+eax*4]
  00055	89 55 f8	 mov	 DWORD PTR _por$[ebp], edx
  00058	eb db		 jmp	 SHORT $LN2@count
$LN3@count:

; 73   : 	por += day;

  0005a	8b 45 f8	 mov	 eax, DWORD PTR _por$[ebp]
  0005d	03 45 08	 add	 eax, DWORD PTR _day$[ebp]
  00060	89 45 f8	 mov	 DWORD PTR _por$[ebp], eax

; 74   : 	return por;

  00063	8b 45 f8	 mov	 eax, DWORD PTR _por$[ebp]

; 75   : }

  00066	5f		 pop	 edi
  00067	5e		 pop	 esi
  00068	5b		 pop	 ebx
  00069	81 c4 d8 00 00
	00		 add	 esp, 216		; 000000d8H
  0006f	3b ec		 cmp	 ebp, esp
  00071	e8 00 00 00 00	 call	 __RTC_CheckEsp
  00076	8b e5		 mov	 esp, ebp
  00078	5d		 pop	 ebp
  00079	c3		 ret	 0
?count@@YAHHHQAH@Z ENDP					; count
_TEXT	ENDS
; Function compile flags: /Odtp /RTCsu /ZI
;	COMDAT ??__Fvis@@YAXXZ
text$yd	SEGMENT
??__Fvis@@YAXXZ PROC					; `dynamic atexit destructor for 'vis'', COMDAT
  00000	55		 push	 ebp
  00001	8b ec		 mov	 ebp, esp
  00003	81 ec c0 00 00
	00		 sub	 esp, 192		; 000000c0H
  00009	53		 push	 ebx
  0000a	56		 push	 esi
  0000b	57		 push	 edi
  0000c	8b fd		 mov	 edi, ebp
  0000e	33 c9		 xor	 ecx, ecx
  00010	b8 cc cc cc cc	 mov	 eax, -858993460		; ccccccccH
  00015	f3 ab		 rep stosd
  00017	b9 00 00 00 00	 mov	 ecx, OFFSET ?vis@@3V?$basic_string@DU?$char_traits@D@std@@V?$allocator@D@2@@std@@A ; vis
  0001c	e8 00 00 00 00	 call	 ??1?$basic_string@DU?$char_traits@D@std@@V?$allocator@D@2@@std@@QAE@XZ ; std::basic_string<char,std::char_traits<char>,std::allocator<char> >::~basic_string<char,std::char_traits<char>,std::allocator<char> >
  00021	5f		 pop	 edi
  00022	5e		 pop	 esi
  00023	5b		 pop	 ebx
  00024	81 c4 c0 00 00
	00		 add	 esp, 192		; 000000c0H
  0002a	3b ec		 cmp	 ebp, esp
  0002c	e8 00 00 00 00	 call	 __RTC_CheckEsp
  00031	8b e5		 mov	 esp, ebp
  00033	5d		 pop	 ebp
  00034	c3		 ret	 0
??__Fvis@@YAXXZ ENDP					; `dynamic atexit destructor for 'vis''
text$yd	ENDS
; Function compile flags: /Odtp /RTCsu /ZI
; File C:\instit\lab\ œŒ\Leapyears\Leapyears\Leapyears.cpp
;	COMDAT ??__Evis@@YAXXZ
text$di	SEGMENT
??__Evis@@YAXXZ PROC					; `dynamic initializer for 'vis'', COMDAT

; 4    : string vis;

  00000	55		 push	 ebp
  00001	8b ec		 mov	 ebp, esp
  00003	81 ec c0 00 00
	00		 sub	 esp, 192		; 000000c0H
  00009	53		 push	 ebx
  0000a	56		 push	 esi
  0000b	57		 push	 edi
  0000c	8b fd		 mov	 edi, ebp
  0000e	33 c9		 xor	 ecx, ecx
  00010	b8 cc cc cc cc	 mov	 eax, -858993460		; ccccccccH
  00015	f3 ab		 rep stosd
  00017	b9 00 00 00 00	 mov	 ecx, OFFSET __98C12F10_Leapyears@cpp
  0001c	e8 00 00 00 00	 call	 @__CheckForDebuggerJustMyCode@4
  00021	b9 00 00 00 00	 mov	 ecx, OFFSET ?vis@@3V?$basic_string@DU?$char_traits@D@std@@V?$allocator@D@2@@std@@A ; vis
  00026	e8 00 00 00 00	 call	 ??0?$basic_string@DU?$char_traits@D@std@@V?$allocator@D@2@@std@@QAE@XZ ; std::basic_string<char,std::char_traits<char>,std::allocator<char> >::basic_string<char,std::char_traits<char>,std::allocator<char> >
  0002b	68 00 00 00 00	 push	 OFFSET ??__Fvis@@YAXXZ	; `dynamic atexit destructor for 'vis''
  00030	e8 00 00 00 00	 call	 _atexit
  00035	83 c4 04	 add	 esp, 4
  00038	5f		 pop	 edi
  00039	5e		 pop	 esi
  0003a	5b		 pop	 ebx
  0003b	81 c4 c0 00 00
	00		 add	 esp, 192		; 000000c0H
  00041	3b ec		 cmp	 ebp, esp
  00043	e8 00 00 00 00	 call	 __RTC_CheckEsp
  00048	8b e5		 mov	 esp, ebp
  0004a	5d		 pop	 ebp
  0004b	c3		 ret	 0
??__Evis@@YAXXZ ENDP					; `dynamic initializer for 'vis''
text$di	ENDS
; Function compile flags: /Odtp /RTCsu /ZI
;	COMDAT ??1?$_Compressed_pair@V?$allocator@D@std@@V?$_String_val@U?$_Simple_types@D@std@@@2@$00@std@@QAE@XZ
_TEXT	SEGMENT
_this$ = -8						; size = 4
??1?$_Compressed_pair@V?$allocator@D@std@@V?$_String_val@U?$_Simple_types@D@std@@@2@$00@std@@QAE@XZ PROC ; std::_Compressed_pair<std::allocator<char>,std::_String_val<std::_Simple_types<char> >,1>::~_Compressed_pair<std::allocator<char>,std::_String_val<std::_Simple_types<char> >,1>, COMDAT
; _this$ = ecx
  00000	55		 push	 ebp
  00001	8b ec		 mov	 ebp, esp
  00003	81 ec cc 00 00
	00		 sub	 esp, 204		; 000000ccH
  00009	53		 push	 ebx
  0000a	56		 push	 esi
  0000b	57		 push	 edi
  0000c	51		 push	 ecx
  0000d	8d 7d f4	 lea	 edi, DWORD PTR [ebp-12]
  00010	b9 03 00 00 00	 mov	 ecx, 3
  00015	b8 cc cc cc cc	 mov	 eax, -858993460		; ccccccccH
  0001a	f3 ab		 rep stosd
  0001c	59		 pop	 ecx
  0001d	89 4d f8	 mov	 DWORD PTR _this$[ebp], ecx
  00020	8b 4d f8	 mov	 ecx, DWORD PTR _this$[ebp]
  00023	e8 00 00 00 00	 call	 ??1?$_String_val@U?$_Simple_types@D@std@@@std@@QAE@XZ
  00028	5f		 pop	 edi
  00029	5e		 pop	 esi
  0002a	5b		 pop	 ebx
  0002b	81 c4 cc 00 00
	00		 add	 esp, 204		; 000000ccH
  00031	3b ec		 cmp	 ebp, esp
  00033	e8 00 00 00 00	 call	 __RTC_CheckEsp
  00038	8b e5		 mov	 esp, ebp
  0003a	5d		 pop	 ebp
  0003b	c3		 ret	 0
??1?$_Compressed_pair@V?$allocator@D@std@@V?$_String_val@U?$_Simple_types@D@std@@@2@$00@std@@QAE@XZ ENDP ; std::_Compressed_pair<std::allocator<char>,std::_String_val<std::_Simple_types<char> >,1>::~_Compressed_pair<std::allocator<char>,std::_String_val<std::_Simple_types<char> >,1>
_TEXT	ENDS
; Function compile flags: /Odtp /RTCsu /ZI
; File C:\Program Files (x86)\Microsoft Visual Studio\2019\Community\VC\Tools\MSVC\14.29.30133\include\xmemory
;	COMDAT ?_Get_first@?$_Compressed_pair@V?$allocator@D@std@@V?$_String_val@U?$_Simple_types@D@std@@@2@$00@std@@QBEABV?$allocator@D@2@XZ
_TEXT	SEGMENT
_this$ = -8						; size = 4
?_Get_first@?$_Compressed_pair@V?$allocator@D@std@@V?$_String_val@U?$_Simple_types@D@std@@@2@$00@std@@QBEABV?$allocator@D@2@XZ PROC ; std::_Compressed_pair<std::allocator<char>,std::_String_val<std::_Simple_types<char> >,1>::_Get_first, COMDAT
; _this$ = ecx

; 1381 :     constexpr const _Ty1& _Get_first() const noexcept {

  00000	55		 push	 ebp
  00001	8b ec		 mov	 ebp, esp
  00003	81 ec cc 00 00
	00		 sub	 esp, 204		; 000000ccH
  00009	53		 push	 ebx
  0000a	56		 push	 esi
  0000b	57		 push	 edi
  0000c	51		 push	 ecx
  0000d	8d 7d f4	 lea	 edi, DWORD PTR [ebp-12]
  00010	b9 03 00 00 00	 mov	 ecx, 3
  00015	b8 cc cc cc cc	 mov	 eax, -858993460		; ccccccccH
  0001a	f3 ab		 rep stosd
  0001c	59		 pop	 ecx
  0001d	89 4d f8	 mov	 DWORD PTR _this$[ebp], ecx
  00020	b9 00 00 00 00	 mov	 ecx, OFFSET __79D216CD_xmemory
  00025	e8 00 00 00 00	 call	 @__CheckForDebuggerJustMyCode@4

; 1382 :         return *this;

  0002a	8b 45 f8	 mov	 eax, DWORD PTR _this$[ebp]

; 1383 :     }

  0002d	5f		 pop	 edi
  0002e	5e		 pop	 esi
  0002f	5b		 pop	 ebx
  00030	81 c4 cc 00 00
	00		 add	 esp, 204		; 000000ccH
  00036	3b ec		 cmp	 ebp, esp
  00038	e8 00 00 00 00	 call	 __RTC_CheckEsp
  0003d	8b e5		 mov	 esp, ebp
  0003f	5d		 pop	 ebp
  00040	c3		 ret	 0
?_Get_first@?$_Compressed_pair@V?$allocator@D@std@@V?$_String_val@U?$_Simple_types@D@std@@@2@$00@std@@QBEABV?$allocator@D@2@XZ ENDP ; std::_Compressed_pair<std::allocator<char>,std::_String_val<std::_Simple_types<char> >,1>::_Get_first
_TEXT	ENDS
; Function compile flags: /Odtp /RTCsu /ZI
; File C:\Program Files (x86)\Microsoft Visual Studio\2019\Community\VC\Tools\MSVC\14.29.30133\include\xmemory
;	COMDAT ?_Get_first@?$_Compressed_pair@V?$allocator@D@std@@V?$_String_val@U?$_Simple_types@D@std@@@2@$00@std@@QAEAAV?$allocator@D@2@XZ
_TEXT	SEGMENT
_this$ = -8						; size = 4
?_Get_first@?$_Compressed_pair@V?$allocator@D@std@@V?$_String_val@U?$_Simple_types@D@std@@@2@$00@std@@QAEAAV?$allocator@D@2@XZ PROC ; std::_Compressed_pair<std::allocator<char>,std::_String_val<std::_Simple_types<char> >,1>::_Get_first, COMDAT
; _this$ = ecx

; 1377 :     constexpr _Ty1& _Get_first() noexcept {

  00000	55		 push	 ebp
  00001	8b ec		 mov	 ebp, esp
  00003	81 ec cc 00 00
	00		 sub	 esp, 204		; 000000ccH
  00009	53		 push	 ebx
  0000a	56		 push	 esi
  0000b	57		 push	 edi
  0000c	51		 push	 ecx
  0000d	8d 7d f4	 lea	 edi, DWORD PTR [ebp-12]
  00010	b9 03 00 00 00	 mov	 ecx, 3
  00015	b8 cc cc cc cc	 mov	 eax, -858993460		; ccccccccH
  0001a	f3 ab		 rep stosd
  0001c	59		 pop	 ecx
  0001d	89 4d f8	 mov	 DWORD PTR _this$[ebp], ecx
  00020	b9 00 00 00 00	 mov	 ecx, OFFSET __79D216CD_xmemory
  00025	e8 00 00 00 00	 call	 @__CheckForDebuggerJustMyCode@4

; 1378 :         return *this;

  0002a	8b 45 f8	 mov	 eax, DWORD PTR _this$[ebp]

; 1379 :     }

  0002d	5f		 pop	 edi
  0002e	5e		 pop	 esi
  0002f	5b		 pop	 ebx
  00030	81 c4 cc 00 00
	00		 add	 esp, 204		; 000000ccH
  00036	3b ec		 cmp	 ebp, esp
  00038	e8 00 00 00 00	 call	 __RTC_CheckEsp
  0003d	8b e5		 mov	 esp, ebp
  0003f	5d		 pop	 ebp
  00040	c3		 ret	 0
?_Get_first@?$_Compressed_pair@V?$allocator@D@std@@V?$_String_val@U?$_Simple_types@D@std@@@2@$00@std@@QAEAAV?$allocator@D@2@XZ ENDP ; std::_Compressed_pair<std::allocator<char>,std::_String_val<std::_Simple_types<char> >,1>::_Get_first
_TEXT	ENDS
; Function compile flags: /Odtp /RTCsu /ZI
; File C:\Program Files (x86)\Microsoft Visual Studio\2019\Community\VC\Tools\MSVC\14.29.30133\include\xstring
;	COMDAT ?_Getal@?$basic_string@DU?$char_traits@D@std@@V?$allocator@D@2@@std@@ABEABV?$allocator@D@2@XZ
_TEXT	SEGMENT
_this$ = -8						; size = 4
?_Getal@?$basic_string@DU?$char_traits@D@std@@V?$allocator@D@2@@std@@ABEABV?$allocator@D@2@XZ PROC ; std::basic_string<char,std::char_traits<char>,std::allocator<char> >::_Getal, COMDAT
; _this$ = ecx

; 4654 :     _CONSTEXPR20_CONTAINER const _Alty& _Getal() const noexcept {

  00000	55		 push	 ebp
  00001	8b ec		 mov	 ebp, esp
  00003	81 ec cc 00 00
	00		 sub	 esp, 204		; 000000ccH
  00009	53		 push	 ebx
  0000a	56		 push	 esi
  0000b	57		 push	 edi
  0000c	51		 push	 ecx
  0000d	8d 7d f4	 lea	 edi, DWORD PTR [ebp-12]
  00010	b9 03 00 00 00	 mov	 ecx, 3
  00015	b8 cc cc cc cc	 mov	 eax, -858993460		; ccccccccH
  0001a	f3 ab		 rep stosd
  0001c	59		 pop	 ecx
  0001d	89 4d f8	 mov	 DWORD PTR _this$[ebp], ecx
  00020	b9 00 00 00 00	 mov	 ecx, OFFSET __0D019051_xstring
  00025	e8 00 00 00 00	 call	 @__CheckForDebuggerJustMyCode@4

; 4655 :         return _Mypair._Get_first();

  0002a	8b 4d f8	 mov	 ecx, DWORD PTR _this$[ebp]
  0002d	e8 00 00 00 00	 call	 ?_Get_first@?$_Compressed_pair@V?$allocator@D@std@@V?$_String_val@U?$_Simple_types@D@std@@@2@$00@std@@QBEABV?$allocator@D@2@XZ ; std::_Compressed_pair<std::allocator<char>,std::_String_val<std::_Simple_types<char> >,1>::_Get_first

; 4656 :     }

  00032	5f		 pop	 edi
  00033	5e		 pop	 esi
  00034	5b		 pop	 ebx
  00035	81 c4 cc 00 00
	00		 add	 esp, 204		; 000000ccH
  0003b	3b ec		 cmp	 ebp, esp
  0003d	e8 00 00 00 00	 call	 __RTC_CheckEsp
  00042	8b e5		 mov	 esp, ebp
  00044	5d		 pop	 ebp
  00045	c3		 ret	 0
?_Getal@?$basic_string@DU?$char_traits@D@std@@V?$allocator@D@2@@std@@ABEABV?$allocator@D@2@XZ ENDP ; std::basic_string<char,std::char_traits<char>,std::allocator<char> >::_Getal
_TEXT	ENDS
; Function compile flags: /Odtp /RTCsu /ZI
; File C:\Program Files (x86)\Microsoft Visual Studio\2019\Community\VC\Tools\MSVC\14.29.30133\include\xstring
;	COMDAT ?_Getal@?$basic_string@DU?$char_traits@D@std@@V?$allocator@D@2@@std@@AAEAAV?$allocator@D@2@XZ
_TEXT	SEGMENT
_this$ = -8						; size = 4
?_Getal@?$basic_string@DU?$char_traits@D@std@@V?$allocator@D@2@@std@@AAEAAV?$allocator@D@2@XZ PROC ; std::basic_string<char,std::char_traits<char>,std::allocator<char> >::_Getal, COMDAT
; _this$ = ecx

; 4650 :     _CONSTEXPR20_CONTAINER _Alty& _Getal() noexcept {

  00000	55		 push	 ebp
  00001	8b ec		 mov	 ebp, esp
  00003	81 ec cc 00 00
	00		 sub	 esp, 204		; 000000ccH
  00009	53		 push	 ebx
  0000a	56		 push	 esi
  0000b	57		 push	 edi
  0000c	51		 push	 ecx
  0000d	8d 7d f4	 lea	 edi, DWORD PTR [ebp-12]
  00010	b9 03 00 00 00	 mov	 ecx, 3
  00015	b8 cc cc cc cc	 mov	 eax, -858993460		; ccccccccH
  0001a	f3 ab		 rep stosd
  0001c	59		 pop	 ecx
  0001d	89 4d f8	 mov	 DWORD PTR _this$[ebp], ecx
  00020	b9 00 00 00 00	 mov	 ecx, OFFSET __0D019051_xstring
  00025	e8 00 00 00 00	 call	 @__CheckForDebuggerJustMyCode@4

; 4651 :         return _Mypair._Get_first();

  0002a	8b 4d f8	 mov	 ecx, DWORD PTR _this$[ebp]
  0002d	e8 00 00 00 00	 call	 ?_Get_first@?$_Compressed_pair@V?$allocator@D@std@@V?$_String_val@U?$_Simple_types@D@std@@@2@$00@std@@QAEAAV?$allocator@D@2@XZ ; std::_Compressed_pair<std::allocator<char>,std::_String_val<std::_Simple_types<char> >,1>::_Get_first

; 4652 :     }

  00032	5f		 pop	 edi
  00033	5e		 pop	 esi
  00034	5b		 pop	 ebx
  00035	81 c4 cc 00 00
	00		 add	 esp, 204		; 000000ccH
  0003b	3b ec		 cmp	 ebp, esp
  0003d	e8 00 00 00 00	 call	 __RTC_CheckEsp
  00042	8b e5		 mov	 esp, ebp
  00044	5d		 pop	 ebp
  00045	c3		 ret	 0
?_Getal@?$basic_string@DU?$char_traits@D@std@@V?$allocator@D@2@@std@@AAEAAV?$allocator@D@2@XZ ENDP ; std::basic_string<char,std::char_traits<char>,std::allocator<char> >::_Getal
_TEXT	ENDS
; Function compile flags: /Odtp /RTCsu /ZI
; File C:\Program Files (x86)\Microsoft Visual Studio\2019\Community\VC\Tools\MSVC\14.29.30133\include\xstring
;	COMDAT ?_Tidy_deallocate@?$basic_string@DU?$char_traits@D@std@@V?$allocator@D@2@@std@@AAEXXZ
_TEXT	SEGMENT
$T2 = -245						; size = 1
__Al$3 = -44						; size = 4
__Ptr$4 = -32						; size = 4
_this$ = -20						; size = 4
__$EHRec$ = -12						; size = 12
?_Tidy_deallocate@?$basic_string@DU?$char_traits@D@std@@V?$allocator@D@2@@std@@AAEXXZ PROC ; std::basic_string<char,std::char_traits<char>,std::allocator<char> >::_Tidy_deallocate, COMDAT
; _this$ = ecx

; 4616 :     _CONSTEXPR20_CONTAINER void _Tidy_deallocate() noexcept { // initialize buffer, deallocating any storage

  00000	55		 push	 ebp
  00001	8b ec		 mov	 ebp, esp
  00003	6a ff		 push	 -1
  00005	68 00 00 00 00	 push	 __ehhandler$?_Tidy_deallocate@?$basic_string@DU?$char_traits@D@std@@V?$allocator@D@2@@std@@AAEXXZ
  0000a	64 a1 00 00 00
	00		 mov	 eax, DWORD PTR fs:0
  00010	50		 push	 eax
  00011	81 ec f0 00 00
	00		 sub	 esp, 240		; 000000f0H
  00017	53		 push	 ebx
  00018	56		 push	 esi
  00019	57		 push	 edi
  0001a	51		 push	 ecx
  0001b	8d 7d c4	 lea	 edi, DWORD PTR [ebp-60]
  0001e	b9 0c 00 00 00	 mov	 ecx, 12			; 0000000cH
  00023	b8 cc cc cc cc	 mov	 eax, -858993460		; ccccccccH
  00028	f3 ab		 rep stosd
  0002a	59		 pop	 ecx
  0002b	a1 00 00 00 00	 mov	 eax, DWORD PTR ___security_cookie
  00030	33 c5		 xor	 eax, ebp
  00032	50		 push	 eax
  00033	8d 45 f4	 lea	 eax, DWORD PTR __$EHRec$[ebp]
  00036	64 a3 00 00 00
	00		 mov	 DWORD PTR fs:0, eax
  0003c	89 4d ec	 mov	 DWORD PTR _this$[ebp], ecx
  0003f	b9 00 00 00 00	 mov	 ecx, OFFSET __0D019051_xstring
  00044	e8 00 00 00 00	 call	 @__CheckForDebuggerJustMyCode@4

; 4617 :         _Mypair._Myval2._Orphan_all();

  00049	8b 4d ec	 mov	 ecx, DWORD PTR _this$[ebp]
  0004c	e8 00 00 00 00	 call	 ?_Orphan_all@_Container_base12@std@@QAEXXZ ; std::_Container_base12::_Orphan_all

; 4618 :         if (_Mypair._Myval2._Large_string_engaged()) {

  00051	8b 4d ec	 mov	 ecx, DWORD PTR _this$[ebp]
  00054	e8 00 00 00 00	 call	 ?_Large_string_engaged@?$_String_val@U?$_Simple_types@D@std@@@std@@QBE_NXZ ; std::_String_val<std::_Simple_types<char> >::_Large_string_engaged
  00059	0f b6 c0	 movzx	 eax, al
  0005c	85 c0		 test	 eax, eax
  0005e	74 39		 je	 SHORT $LN2@Tidy_deall

; 4619 :             const pointer _Ptr = _Mypair._Myval2._Bx._Ptr;

  00060	8b 45 ec	 mov	 eax, DWORD PTR _this$[ebp]
  00063	8b 48 04	 mov	 ecx, DWORD PTR [eax+4]
  00066	89 4d e0	 mov	 DWORD PTR __Ptr$4[ebp], ecx

; 4620 :             auto& _Al          = _Getal();

  00069	8b 4d ec	 mov	 ecx, DWORD PTR _this$[ebp]
  0006c	e8 00 00 00 00	 call	 ?_Getal@?$basic_string@DU?$char_traits@D@std@@V?$allocator@D@2@@std@@AAEAAV?$allocator@D@2@XZ ; std::basic_string<char,std::char_traits<char>,std::allocator<char> >::_Getal
  00071	89 45 d4	 mov	 DWORD PTR __Al$3[ebp], eax

; 4621 :             _Destroy_in_place(_Mypair._Myval2._Bx._Ptr);

  00074	8b 45 ec	 mov	 eax, DWORD PTR _this$[ebp]
  00077	83 c0 04	 add	 eax, 4
  0007a	50		 push	 eax
  0007b	e8 00 00 00 00	 call	 ??$_Destroy_in_place@PAD@std@@YAXAAPAD@Z ; std::_Destroy_in_place<char *>
  00080	83 c4 04	 add	 esp, 4

; 4622 :             _Al.deallocate(_Ptr, _Mypair._Myval2._Myres + 1);

  00083	8b 45 ec	 mov	 eax, DWORD PTR _this$[ebp]
  00086	8b 48 18	 mov	 ecx, DWORD PTR [eax+24]
  00089	83 c1 01	 add	 ecx, 1
  0008c	51		 push	 ecx
  0008d	8b 55 e0	 mov	 edx, DWORD PTR __Ptr$4[ebp]
  00090	52		 push	 edx
  00091	8b 4d d4	 mov	 ecx, DWORD PTR __Al$3[ebp]
  00094	e8 00 00 00 00	 call	 ?deallocate@?$allocator@D@std@@QAEXQADI@Z ; std::allocator<char>::deallocate
$LN2@Tidy_deall:

; 4623 :         }
; 4624 : 
; 4625 : #ifdef __cpp_lib_constexpr_string
; 4626 :         if (_STD is_constant_evaluated()) {
; 4627 :             _Mypair._Myval2._Bx._Ptr = nullptr;
; 4628 :             _Mypair._Myval2._Mysize  = 0;
; 4629 :             _Mypair._Myval2._Myres   = 0;
; 4630 :         } else
; 4631 : #endif // __cpp_lib_constexpr_string
; 4632 :         {
; 4633 :             _Mypair._Myval2._Mysize = 0;

  00099	8b 45 ec	 mov	 eax, DWORD PTR _this$[ebp]
  0009c	c7 40 14 00 00
	00 00		 mov	 DWORD PTR [eax+20], 0

; 4634 :             _Mypair._Myval2._Myres  = _BUF_SIZE - 1;

  000a3	8b 45 ec	 mov	 eax, DWORD PTR _this$[ebp]
  000a6	c7 40 18 0f 00
	00 00		 mov	 DWORD PTR [eax+24], 15	; 0000000fH

; 4635 :             // the _Traits::assign is last so the codegen doesn't think the char write can alias this
; 4636 :             _Traits::assign(_Mypair._Myval2._Bx._Buf[0], _Elem());

  000ad	c6 85 0b ff ff
	ff 00		 mov	 BYTE PTR $T2[ebp], 0
  000b4	8d 85 0b ff ff
	ff		 lea	 eax, DWORD PTR $T2[ebp]
  000ba	50		 push	 eax
  000bb	b9 01 00 00 00	 mov	 ecx, 1
  000c0	6b d1 00	 imul	 edx, ecx, 0
  000c3	8b 45 ec	 mov	 eax, DWORD PTR _this$[ebp]
  000c6	8d 4c 10 04	 lea	 ecx, DWORD PTR [eax+edx+4]
  000ca	51		 push	 ecx
  000cb	e8 00 00 00 00	 call	 ?assign@?$_Narrow_char_traits@DH@std@@SAXAADABD@Z ; std::_Narrow_char_traits<char,int>::assign
  000d0	83 c4 08	 add	 esp, 8

; 4637 :         }
; 4638 :     }

  000d3	8b 4d f4	 mov	 ecx, DWORD PTR __$EHRec$[ebp]
  000d6	64 89 0d 00 00
	00 00		 mov	 DWORD PTR fs:0, ecx
  000dd	59		 pop	 ecx
  000de	5f		 pop	 edi
  000df	5e		 pop	 esi
  000e0	5b		 pop	 ebx
  000e1	81 c4 fc 00 00
	00		 add	 esp, 252		; 000000fcH
  000e7	3b ec		 cmp	 ebp, esp
  000e9	e8 00 00 00 00	 call	 __RTC_CheckEsp
  000ee	8b e5		 mov	 esp, ebp
  000f0	5d		 pop	 ebp
  000f1	c3		 ret	 0
  000f2	cc		 int	 3
  000f3	cc		 int	 3
  000f4	cc		 int	 3
  000f5	cc		 int	 3
  000f6	cc		 int	 3
_TEXT	ENDS
;	COMDAT text$x
text$x	SEGMENT
__ehhandler$?_Tidy_deallocate@?$basic_string@DU?$char_traits@D@std@@V?$allocator@D@2@@std@@AAEXXZ:
  00000	90		 npad	 1
  00001	90		 npad	 1
  00002	8b 54 24 08	 mov	 edx, DWORD PTR [esp+8]
  00006	8d 42 0c	 lea	 eax, DWORD PTR [edx+12]
  00009	8b 8a 00 ff ff
	ff		 mov	 ecx, DWORD PTR [edx-256]
  0000f	33 c8		 xor	 ecx, eax
  00011	e8 00 00 00 00	 call	 @__security_check_cookie@4
  00016	b8 00 00 00 00	 mov	 eax, OFFSET __ehfuncinfo$?_Tidy_deallocate@?$basic_string@DU?$char_traits@D@std@@V?$allocator@D@2@@std@@AAEXXZ
  0001b	e9 00 00 00 00	 jmp	 ___CxxFrameHandler3
text$x	ENDS
?_Tidy_deallocate@?$basic_string@DU?$char_traits@D@std@@V?$allocator@D@2@@std@@AAEXXZ ENDP ; std::basic_string<char,std::char_traits<char>,std::allocator<char> >::_Tidy_deallocate
; Function compile flags: /Odtp /RTCsu /ZI
; File C:\Program Files (x86)\Microsoft Visual Studio\2019\Community\VC\Tools\MSVC\14.29.30133\include\xstring
;	COMDAT ?_Tidy_init@?$basic_string@DU?$char_traits@D@std@@V?$allocator@D@2@@std@@AAEXXZ
_TEXT	SEGMENT
$T1 = -221						; size = 1
__My_data$ = -20					; size = 4
_this$ = -8						; size = 4
?_Tidy_init@?$basic_string@DU?$char_traits@D@std@@V?$allocator@D@2@@std@@AAEXXZ PROC ; std::basic_string<char,std::char_traits<char>,std::allocator<char> >::_Tidy_init, COMDAT
; _this$ = ecx

; 4594 :     _CONSTEXPR20_CONTAINER void _Tidy_init() noexcept { // initialize basic_string data members

  00000	55		 push	 ebp
  00001	8b ec		 mov	 ebp, esp
  00003	81 ec e4 00 00
	00		 sub	 esp, 228		; 000000e4H
  00009	53		 push	 ebx
  0000a	56		 push	 esi
  0000b	57		 push	 edi
  0000c	51		 push	 ecx
  0000d	8d 7d dc	 lea	 edi, DWORD PTR [ebp-36]
  00010	b9 09 00 00 00	 mov	 ecx, 9
  00015	b8 cc cc cc cc	 mov	 eax, -858993460		; ccccccccH
  0001a	f3 ab		 rep stosd
  0001c	59		 pop	 ecx
  0001d	89 4d f8	 mov	 DWORD PTR _this$[ebp], ecx
  00020	b9 00 00 00 00	 mov	 ecx, OFFSET __0D019051_xstring
  00025	e8 00 00 00 00	 call	 @__CheckForDebuggerJustMyCode@4

; 4595 :         auto& _My_data   = _Mypair._Myval2;

  0002a	8b 45 f8	 mov	 eax, DWORD PTR _this$[ebp]
  0002d	89 45 ec	 mov	 DWORD PTR __My_data$[ebp], eax

; 4596 :         _My_data._Mysize = 0;

  00030	8b 45 ec	 mov	 eax, DWORD PTR __My_data$[ebp]
  00033	c7 40 14 00 00
	00 00		 mov	 DWORD PTR [eax+20], 0

; 4597 : 
; 4598 : #ifdef __cpp_lib_constexpr_string
; 4599 :         if (_STD is_constant_evaluated()) {
; 4600 :             _My_data._Myres        = _BUF_SIZE; // SSO disabled in constexpr context
; 4601 :             auto& _Al              = _Getal();
; 4602 :             const pointer _New_ptr = _Al.allocate(_BUF_SIZE + 1); // throws
; 4603 :             _My_data._Bx._Ptr      = _New_ptr;
; 4604 : 
; 4605 :             _Elem* const _Raw_new = _Unfancy(_New_ptr);
; 4606 :             _Traits::assign(_Raw_new, _BUF_SIZE + 1, _Elem());
; 4607 :         } else
; 4608 : #endif // __cpp_lib_constexpr_string
; 4609 :         {
; 4610 :             _My_data._Myres = _BUF_SIZE - 1;

  0003a	8b 45 ec	 mov	 eax, DWORD PTR __My_data$[ebp]
  0003d	c7 40 18 0f 00
	00 00		 mov	 DWORD PTR [eax+24], 15	; 0000000fH

; 4611 :             // the _Traits::assign is last so the codegen doesn't think the char write can alias this
; 4612 :             _Traits::assign(_My_data._Bx._Buf[0], _Elem());

  00044	c6 85 23 ff ff
	ff 00		 mov	 BYTE PTR $T1[ebp], 0
  0004b	8d 85 23 ff ff
	ff		 lea	 eax, DWORD PTR $T1[ebp]
  00051	50		 push	 eax
  00052	b9 01 00 00 00	 mov	 ecx, 1
  00057	6b d1 00	 imul	 edx, ecx, 0
  0005a	8b 45 ec	 mov	 eax, DWORD PTR __My_data$[ebp]
  0005d	8d 4c 10 04	 lea	 ecx, DWORD PTR [eax+edx+4]
  00061	51		 push	 ecx
  00062	e8 00 00 00 00	 call	 ?assign@?$_Narrow_char_traits@DH@std@@SAXAADABD@Z ; std::_Narrow_char_traits<char,int>::assign
  00067	83 c4 08	 add	 esp, 8

; 4613 :         }
; 4614 :     }

  0006a	5f		 pop	 edi
  0006b	5e		 pop	 esi
  0006c	5b		 pop	 ebx
  0006d	81 c4 e4 00 00
	00		 add	 esp, 228		; 000000e4H
  00073	3b ec		 cmp	 ebp, esp
  00075	e8 00 00 00 00	 call	 __RTC_CheckEsp
  0007a	8b e5		 mov	 esp, ebp
  0007c	5d		 pop	 ebp
  0007d	c3		 ret	 0
?_Tidy_init@?$basic_string@DU?$char_traits@D@std@@V?$allocator@D@2@@std@@AAEXXZ ENDP ; std::basic_string<char,std::char_traits<char>,std::allocator<char> >::_Tidy_init
_TEXT	ENDS
; Function compile flags: /Odtp /RTCsu /ZI
; File C:\Program Files (x86)\Microsoft Visual Studio\2019\Community\VC\Tools\MSVC\14.29.30133\include\xstring
;	COMDAT ?_Calculate_growth@?$basic_string@DU?$char_traits@D@std@@V?$allocator@D@2@@std@@ABEII@Z
_TEXT	SEGMENT
_this$ = -8						; size = 4
__Requested$ = 8					; size = 4
?_Calculate_growth@?$basic_string@DU?$char_traits@D@std@@V?$allocator@D@2@@std@@ABEII@Z PROC ; std::basic_string<char,std::char_traits<char>,std::allocator<char> >::_Calculate_growth, COMDAT
; _this$ = ecx

; 4500 :     _NODISCARD _CONSTEXPR20_CONTAINER size_type _Calculate_growth(const size_type _Requested) const noexcept {

  00000	55		 push	 ebp
  00001	8b ec		 mov	 ebp, esp
  00003	81 ec cc 00 00
	00		 sub	 esp, 204		; 000000ccH
  00009	53		 push	 ebx
  0000a	56		 push	 esi
  0000b	57		 push	 edi
  0000c	51		 push	 ecx
  0000d	8d 7d f4	 lea	 edi, DWORD PTR [ebp-12]
  00010	b9 03 00 00 00	 mov	 ecx, 3
  00015	b8 cc cc cc cc	 mov	 eax, -858993460		; ccccccccH
  0001a	f3 ab		 rep stosd
  0001c	59		 pop	 ecx
  0001d	89 4d f8	 mov	 DWORD PTR _this$[ebp], ecx
  00020	b9 00 00 00 00	 mov	 ecx, OFFSET __0D019051_xstring
  00025	e8 00 00 00 00	 call	 @__CheckForDebuggerJustMyCode@4

; 4501 :         return _Calculate_growth(_Requested, _Mypair._Myval2._Myres, max_size());

  0002a	8b 4d f8	 mov	 ecx, DWORD PTR _this$[ebp]
  0002d	e8 00 00 00 00	 call	 ?max_size@?$basic_string@DU?$char_traits@D@std@@V?$allocator@D@2@@std@@QBEIXZ ; std::basic_string<char,std::char_traits<char>,std::allocator<char> >::max_size
  00032	50		 push	 eax
  00033	8b 45 f8	 mov	 eax, DWORD PTR _this$[ebp]
  00036	8b 48 18	 mov	 ecx, DWORD PTR [eax+24]
  00039	51		 push	 ecx
  0003a	8b 55 08	 mov	 edx, DWORD PTR __Requested$[ebp]
  0003d	52		 push	 edx
  0003e	e8 00 00 00 00	 call	 ?_Calculate_growth@?$basic_string@DU?$char_traits@D@std@@V?$allocator@D@2@@std@@CAIIII@Z ; std::basic_string<char,std::char_traits<char>,std::allocator<char> >::_Calculate_growth
  00043	83 c4 0c	 add	 esp, 12			; 0000000cH

; 4502 :     }

  00046	5f		 pop	 edi
  00047	5e		 pop	 esi
  00048	5b		 pop	 ebx
  00049	81 c4 cc 00 00
	00		 add	 esp, 204		; 000000ccH
  0004f	3b ec		 cmp	 ebp, esp
  00051	e8 00 00 00 00	 call	 __RTC_CheckEsp
  00056	8b e5		 mov	 esp, ebp
  00058	5d		 pop	 ebp
  00059	c2 04 00	 ret	 4
?_Calculate_growth@?$basic_string@DU?$char_traits@D@std@@V?$allocator@D@2@@std@@ABEII@Z ENDP ; std::basic_string<char,std::char_traits<char>,std::allocator<char> >::_Calculate_growth
_TEXT	ENDS
; Function compile flags: /Odtp /RTCsu /ZI
; File C:\Program Files (x86)\Microsoft Visual Studio\2019\Community\VC\Tools\MSVC\14.29.30133\include\xstring
;	COMDAT ?_Calculate_growth@?$basic_string@DU?$char_traits@D@std@@V?$allocator@D@2@@std@@CAIIII@Z
_TEXT	SEGMENT
$T1 = -216						; size = 4
__Masked$ = -12						; size = 4
__$ArrayPad$ = -4					; size = 4
__Requested$ = 8					; size = 4
__Old$ = 12						; size = 4
__Max$ = 16						; size = 4
?_Calculate_growth@?$basic_string@DU?$char_traits@D@std@@V?$allocator@D@2@@std@@CAIIII@Z PROC ; std::basic_string<char,std::char_traits<char>,std::allocator<char> >::_Calculate_growth, COMDAT

; 4487 :         const size_type _Requested, const size_type _Old, const size_type _Max) noexcept {

  00000	55		 push	 ebp
  00001	8b ec		 mov	 ebp, esp
  00003	81 ec dc 00 00
	00		 sub	 esp, 220		; 000000dcH
  00009	53		 push	 ebx
  0000a	56		 push	 esi
  0000b	57		 push	 edi
  0000c	8d 7d e4	 lea	 edi, DWORD PTR [ebp-28]
  0000f	b9 07 00 00 00	 mov	 ecx, 7
  00014	b8 cc cc cc cc	 mov	 eax, -858993460		; ccccccccH
  00019	f3 ab		 rep stosd
  0001b	a1 00 00 00 00	 mov	 eax, DWORD PTR ___security_cookie
  00020	33 c5		 xor	 eax, ebp
  00022	89 45 fc	 mov	 DWORD PTR __$ArrayPad$[ebp], eax
  00025	b9 00 00 00 00	 mov	 ecx, OFFSET __0D019051_xstring
  0002a	e8 00 00 00 00	 call	 @__CheckForDebuggerJustMyCode@4

; 4488 :         const size_type _Masked = _Requested | _ALLOC_MASK;

  0002f	8b 45 08	 mov	 eax, DWORD PTR __Requested$[ebp]
  00032	83 c8 0f	 or	 eax, 15			; 0000000fH
  00035	89 45 f4	 mov	 DWORD PTR __Masked$[ebp], eax

; 4489 :         if (_Masked > _Max) { // the mask overflows, settle for max_size()

  00038	8b 45 f4	 mov	 eax, DWORD PTR __Masked$[ebp]
  0003b	3b 45 10	 cmp	 eax, DWORD PTR __Max$[ebp]
  0003e	76 05		 jbe	 SHORT $LN2@Calculate_

; 4490 :             return _Max;

  00040	8b 45 10	 mov	 eax, DWORD PTR __Max$[ebp]
  00043	eb 37		 jmp	 SHORT $LN4@Calculate_
$LN2@Calculate_:

; 4491 :         }
; 4492 : 
; 4493 :         if (_Old > _Max - _Old / 2) { // similarly, geometric overflows

  00045	8b 45 0c	 mov	 eax, DWORD PTR __Old$[ebp]
  00048	d1 e8		 shr	 eax, 1
  0004a	8b 4d 10	 mov	 ecx, DWORD PTR __Max$[ebp]
  0004d	2b c8		 sub	 ecx, eax
  0004f	39 4d 0c	 cmp	 DWORD PTR __Old$[ebp], ecx
  00052	76 05		 jbe	 SHORT $LN3@Calculate_

; 4494 :             return _Max;

  00054	8b 45 10	 mov	 eax, DWORD PTR __Max$[ebp]
  00057	eb 23		 jmp	 SHORT $LN4@Calculate_
$LN3@Calculate_:

; 4495 :         }
; 4496 : 
; 4497 :         return (_STD max)(_Masked, _Old + _Old / 2);

  00059	8b 45 0c	 mov	 eax, DWORD PTR __Old$[ebp]
  0005c	d1 e8		 shr	 eax, 1
  0005e	03 45 0c	 add	 eax, DWORD PTR __Old$[ebp]
  00061	89 85 28 ff ff
	ff		 mov	 DWORD PTR $T1[ebp], eax
  00067	8d 8d 28 ff ff
	ff		 lea	 ecx, DWORD PTR $T1[ebp]
  0006d	51		 push	 ecx
  0006e	8d 55 f4	 lea	 edx, DWORD PTR __Masked$[ebp]
  00071	52		 push	 edx
  00072	e8 00 00 00 00	 call	 ??$max@I@std@@YAABIABI0@Z ; std::max<unsigned int>
  00077	83 c4 08	 add	 esp, 8
  0007a	8b 00		 mov	 eax, DWORD PTR [eax]
$LN4@Calculate_:

; 4498 :     }

  0007c	52		 push	 edx
  0007d	8b cd		 mov	 ecx, ebp
  0007f	50		 push	 eax
  00080	8d 15 00 00 00
	00		 lea	 edx, DWORD PTR $LN7@Calculate_
  00086	e8 00 00 00 00	 call	 @_RTC_CheckStackVars@8
  0008b	58		 pop	 eax
  0008c	5a		 pop	 edx
  0008d	5f		 pop	 edi
  0008e	5e		 pop	 esi
  0008f	5b		 pop	 ebx
  00090	8b 4d fc	 mov	 ecx, DWORD PTR __$ArrayPad$[ebp]
  00093	33 cd		 xor	 ecx, ebp
  00095	e8 00 00 00 00	 call	 @__security_check_cookie@4
  0009a	81 c4 dc 00 00
	00		 add	 esp, 220		; 000000dcH
  000a0	3b ec		 cmp	 ebp, esp
  000a2	e8 00 00 00 00	 call	 __RTC_CheckEsp
  000a7	8b e5		 mov	 esp, ebp
  000a9	5d		 pop	 ebp
  000aa	c3		 ret	 0
  000ab	90		 npad	 1
$LN7@Calculate_:
  000ac	01 00 00 00	 DD	 1
  000b0	00 00 00 00	 DD	 $LN6@Calculate_
$LN6@Calculate_:
  000b4	f4 ff ff ff	 DD	 -12			; fffffff4H
  000b8	04 00 00 00	 DD	 4
  000bc	00 00 00 00	 DD	 $LN5@Calculate_
$LN5@Calculate_:
  000c0	5f		 DB	 95			; 0000005fH
  000c1	4d		 DB	 77			; 0000004dH
  000c2	61		 DB	 97			; 00000061H
  000c3	73		 DB	 115			; 00000073H
  000c4	6b		 DB	 107			; 0000006bH
  000c5	65		 DB	 101			; 00000065H
  000c6	64		 DB	 100			; 00000064H
  000c7	00		 DB	 0
?_Calculate_growth@?$basic_string@DU?$char_traits@D@std@@V?$allocator@D@2@@std@@CAIIII@Z ENDP ; std::basic_string<char,std::char_traits<char>,std::allocator<char> >::_Calculate_growth
_TEXT	ENDS
; Function compile flags: /Odtp /RTCsu /ZI
; File C:\Program Files (x86)\Microsoft Visual Studio\2019\Community\VC\Tools\MSVC\14.29.30133\include\xstring
;	COMDAT ?max_size@?$basic_string@DU?$char_traits@D@std@@V?$allocator@D@2@@std@@QBEIXZ
_TEXT	SEGMENT
$T1 = -264						; size = 4
$T2 = -252						; size = 4
$T3 = -240						; size = 4
__Storage_max$ = -36					; size = 4
__Alloc_max$ = -24					; size = 4
_this$ = -12						; size = 4
__$ArrayPad$ = -4					; size = 4
?max_size@?$basic_string@DU?$char_traits@D@std@@V?$allocator@D@2@@std@@QBEIXZ PROC ; std::basic_string<char,std::char_traits<char>,std::allocator<char> >::max_size, COMDAT
; _this$ = ecx

; 3943 :     _NODISCARD _CONSTEXPR20_CONTAINER size_type max_size() const noexcept {

  00000	55		 push	 ebp
  00001	8b ec		 mov	 ebp, esp
  00003	81 ec 0c 01 00
	00		 sub	 esp, 268		; 0000010cH
  00009	53		 push	 ebx
  0000a	56		 push	 esi
  0000b	57		 push	 edi
  0000c	51		 push	 ecx
  0000d	8d 7d b4	 lea	 edi, DWORD PTR [ebp-76]
  00010	b9 13 00 00 00	 mov	 ecx, 19			; 00000013H
  00015	b8 cc cc cc cc	 mov	 eax, -858993460		; ccccccccH
  0001a	f3 ab		 rep stosd
  0001c	59		 pop	 ecx
  0001d	a1 00 00 00 00	 mov	 eax, DWORD PTR ___security_cookie
  00022	33 c5		 xor	 eax, ebp
  00024	89 45 fc	 mov	 DWORD PTR __$ArrayPad$[ebp], eax
  00027	89 4d f4	 mov	 DWORD PTR _this$[ebp], ecx
  0002a	b9 00 00 00 00	 mov	 ecx, OFFSET __0D019051_xstring
  0002f	e8 00 00 00 00	 call	 @__CheckForDebuggerJustMyCode@4

; 3944 :         const size_type _Alloc_max   = _Alty_traits::max_size(_Getal());

  00034	8b 4d f4	 mov	 ecx, DWORD PTR _this$[ebp]
  00037	e8 00 00 00 00	 call	 ?_Getal@?$basic_string@DU?$char_traits@D@std@@V?$allocator@D@2@@std@@ABEABV?$allocator@D@2@XZ ; std::basic_string<char,std::char_traits<char>,std::allocator<char> >::_Getal
  0003c	50		 push	 eax
  0003d	e8 00 00 00 00	 call	 ?max_size@?$_Default_allocator_traits@V?$allocator@D@std@@@std@@SAIABV?$allocator@D@2@@Z ; std::_Default_allocator_traits<std::allocator<char> >::max_size
  00042	83 c4 04	 add	 esp, 4
  00045	89 45 e8	 mov	 DWORD PTR __Alloc_max$[ebp], eax

; 3945 :         const size_type _Storage_max = // can always store small string

  00048	c7 85 10 ff ff
	ff 10 00 00 00	 mov	 DWORD PTR $T3[ebp], 16	; 00000010H
  00052	8d 85 10 ff ff
	ff		 lea	 eax, DWORD PTR $T3[ebp]
  00058	50		 push	 eax
  00059	8d 4d e8	 lea	 ecx, DWORD PTR __Alloc_max$[ebp]
  0005c	51		 push	 ecx
  0005d	e8 00 00 00 00	 call	 ??$max@I@std@@YAABIABI0@Z ; std::max<unsigned int>
  00062	83 c4 08	 add	 esp, 8
  00065	8b 10		 mov	 edx, DWORD PTR [eax]
  00067	89 55 dc	 mov	 DWORD PTR __Storage_max$[ebp], edx

; 3946 :             (_STD max)(_Alloc_max, static_cast<size_type>(_BUF_SIZE));
; 3947 :         return (_STD min)(static_cast<size_type>((numeric_limits<difference_type>::max)()),

  0006a	8b 45 dc	 mov	 eax, DWORD PTR __Storage_max$[ebp]
  0006d	83 e8 01	 sub	 eax, 1
  00070	89 85 04 ff ff
	ff		 mov	 DWORD PTR $T2[ebp], eax
  00076	e8 00 00 00 00	 call	 ?max@?$numeric_limits@H@std@@SAHXZ ; std::numeric_limits<int>::max
  0007b	89 85 f8 fe ff
	ff		 mov	 DWORD PTR $T1[ebp], eax
  00081	8d 8d 04 ff ff
	ff		 lea	 ecx, DWORD PTR $T2[ebp]
  00087	51		 push	 ecx
  00088	8d 95 f8 fe ff
	ff		 lea	 edx, DWORD PTR $T1[ebp]
  0008e	52		 push	 edx
  0008f	e8 00 00 00 00	 call	 ??$min@I@std@@YAABIABI0@Z ; std::min<unsigned int>
  00094	83 c4 08	 add	 esp, 8
  00097	8b 00		 mov	 eax, DWORD PTR [eax]

; 3948 :             _Storage_max - 1 // -1 is for null terminator and/or npos
; 3949 :         );
; 3950 :     }

  00099	52		 push	 edx
  0009a	8b cd		 mov	 ecx, ebp
  0009c	50		 push	 eax
  0009d	8d 15 00 00 00
	00		 lea	 edx, DWORD PTR $LN5@max_size
  000a3	e8 00 00 00 00	 call	 @_RTC_CheckStackVars@8
  000a8	58		 pop	 eax
  000a9	5a		 pop	 edx
  000aa	5f		 pop	 edi
  000ab	5e		 pop	 esi
  000ac	5b		 pop	 ebx
  000ad	8b 4d fc	 mov	 ecx, DWORD PTR __$ArrayPad$[ebp]
  000b0	33 cd		 xor	 ecx, ebp
  000b2	e8 00 00 00 00	 call	 @__security_check_cookie@4
  000b7	81 c4 0c 01 00
	00		 add	 esp, 268		; 0000010cH
  000bd	3b ec		 cmp	 ebp, esp
  000bf	e8 00 00 00 00	 call	 __RTC_CheckEsp
  000c4	8b e5		 mov	 esp, ebp
  000c6	5d		 pop	 ebp
  000c7	c3		 ret	 0
$LN5@max_size:
  000c8	01 00 00 00	 DD	 1
  000cc	00 00 00 00	 DD	 $LN4@max_size
$LN4@max_size:
  000d0	e8 ff ff ff	 DD	 -24			; ffffffe8H
  000d4	04 00 00 00	 DD	 4
  000d8	00 00 00 00	 DD	 $LN3@max_size
$LN3@max_size:
  000dc	5f		 DB	 95			; 0000005fH
  000dd	41		 DB	 65			; 00000041H
  000de	6c		 DB	 108			; 0000006cH
  000df	6c		 DB	 108			; 0000006cH
  000e0	6f		 DB	 111			; 0000006fH
  000e1	63		 DB	 99			; 00000063H
  000e2	5f		 DB	 95			; 0000005fH
  000e3	6d		 DB	 109			; 0000006dH
  000e4	61		 DB	 97			; 00000061H
  000e5	78		 DB	 120			; 00000078H
  000e6	00		 DB	 0
?max_size@?$basic_string@DU?$char_traits@D@std@@V?$allocator@D@2@@std@@QBEIXZ ENDP ; std::basic_string<char,std::char_traits<char>,std::allocator<char> >::max_size
_TEXT	ENDS
; Function compile flags: /Odtp /RTCsu /ZI
; File C:\Program Files (x86)\Microsoft Visual Studio\2019\Community\VC\Tools\MSVC\14.29.30133\include\xstring
;	COMDAT ?size@?$basic_string@DU?$char_traits@D@std@@V?$allocator@D@2@@std@@QBEIXZ
_TEXT	SEGMENT
_this$ = -8						; size = 4
?size@?$basic_string@DU?$char_traits@D@std@@V?$allocator@D@2@@std@@QBEIXZ PROC ; std::basic_string<char,std::char_traits<char>,std::allocator<char> >::size, COMDAT
; _this$ = ecx

; 3939 :     _NODISCARD _CONSTEXPR20_CONTAINER size_type size() const noexcept {

  00000	55		 push	 ebp
  00001	8b ec		 mov	 ebp, esp
  00003	81 ec cc 00 00
	00		 sub	 esp, 204		; 000000ccH
  00009	53		 push	 ebx
  0000a	56		 push	 esi
  0000b	57		 push	 edi
  0000c	51		 push	 ecx
  0000d	8d 7d f4	 lea	 edi, DWORD PTR [ebp-12]
  00010	b9 03 00 00 00	 mov	 ecx, 3
  00015	b8 cc cc cc cc	 mov	 eax, -858993460		; ccccccccH
  0001a	f3 ab		 rep stosd
  0001c	59		 pop	 ecx
  0001d	89 4d f8	 mov	 DWORD PTR _this$[ebp], ecx
  00020	b9 00 00 00 00	 mov	 ecx, OFFSET __0D019051_xstring
  00025	e8 00 00 00 00	 call	 @__CheckForDebuggerJustMyCode@4

; 3940 :         return _Mypair._Myval2._Mysize;

  0002a	8b 45 f8	 mov	 eax, DWORD PTR _this$[ebp]
  0002d	8b 40 14	 mov	 eax, DWORD PTR [eax+20]

; 3941 :     }

  00030	5f		 pop	 edi
  00031	5e		 pop	 esi
  00032	5b		 pop	 ebx
  00033	81 c4 cc 00 00
	00		 add	 esp, 204		; 000000ccH
  00039	3b ec		 cmp	 ebp, esp
  0003b	e8 00 00 00 00	 call	 __RTC_CheckEsp
  00040	8b e5		 mov	 esp, ebp
  00042	5d		 pop	 ebp
  00043	c3		 ret	 0
?size@?$basic_string@DU?$char_traits@D@std@@V?$allocator@D@2@@std@@QBEIXZ ENDP ; std::basic_string<char,std::char_traits<char>,std::allocator<char> >::size
_TEXT	ENDS
; Function compile flags: /Odtp /RTCsu /ZI
; File C:\Program Files (x86)\Microsoft Visual Studio\2019\Community\VC\Tools\MSVC\14.29.30133\include\xstring
;	COMDAT ?data@?$basic_string@DU?$char_traits@D@std@@V?$allocator@D@2@@std@@QBEPBDXZ
_TEXT	SEGMENT
_this$ = -8						; size = 4
?data@?$basic_string@DU?$char_traits@D@std@@V?$allocator@D@2@@std@@QBEPBDXZ PROC ; std::basic_string<char,std::char_traits<char>,std::allocator<char> >::data, COMDAT
; _this$ = ecx

; 3925 :     _NODISCARD _CONSTEXPR20_CONTAINER _Ret_z_ const _Elem* data() const noexcept {

  00000	55		 push	 ebp
  00001	8b ec		 mov	 ebp, esp
  00003	81 ec cc 00 00
	00		 sub	 esp, 204		; 000000ccH
  00009	53		 push	 ebx
  0000a	56		 push	 esi
  0000b	57		 push	 edi
  0000c	51		 push	 ecx
  0000d	8d 7d f4	 lea	 edi, DWORD PTR [ebp-12]
  00010	b9 03 00 00 00	 mov	 ecx, 3
  00015	b8 cc cc cc cc	 mov	 eax, -858993460		; ccccccccH
  0001a	f3 ab		 rep stosd
  0001c	59		 pop	 ecx
  0001d	89 4d f8	 mov	 DWORD PTR _this$[ebp], ecx
  00020	b9 00 00 00 00	 mov	 ecx, OFFSET __0D019051_xstring
  00025	e8 00 00 00 00	 call	 @__CheckForDebuggerJustMyCode@4

; 3926 :         return _Mypair._Myval2._Myptr();

  0002a	8b 4d f8	 mov	 ecx, DWORD PTR _this$[ebp]
  0002d	e8 00 00 00 00	 call	 ?_Myptr@?$_String_val@U?$_Simple_types@D@std@@@std@@QBEPBDXZ ; std::_String_val<std::_Simple_types<char> >::_Myptr

; 3927 :     }

  00032	5f		 pop	 edi
  00033	5e		 pop	 esi
  00034	5b		 pop	 ebx
  00035	81 c4 cc 00 00
	00		 add	 esp, 204		; 000000ccH
  0003b	3b ec		 cmp	 ebp, esp
  0003d	e8 00 00 00 00	 call	 __RTC_CheckEsp
  00042	8b e5		 mov	 esp, ebp
  00044	5d		 pop	 ebp
  00045	c3		 ret	 0
?data@?$basic_string@DU?$char_traits@D@std@@V?$allocator@D@2@@std@@QBEPBDXZ ENDP ; std::basic_string<char,std::char_traits<char>,std::allocator<char> >::data
_TEXT	ENDS
; Function compile flags: /Odtp /RTCsu /ZI
; File C:\Program Files (x86)\Microsoft Visual Studio\2019\Community\VC\Tools\MSVC\14.29.30133\include\xstring
;	COMDAT ?assign@?$basic_string@DU?$char_traits@D@std@@V?$allocator@D@2@@std@@QAEAAV12@QBD@Z
_TEXT	SEGMENT
_this$ = -8						; size = 4
__Ptr$ = 8						; size = 4
?assign@?$basic_string@DU?$char_traits@D@std@@V?$allocator@D@2@@std@@QAEAAV12@QBD@Z PROC ; std::basic_string<char,std::char_traits<char>,std::allocator<char> >::assign, COMDAT
; _this$ = ecx

; 3263 :     _CONSTEXPR20_CONTAINER basic_string& assign(_In_z_ const _Elem* const _Ptr) {

  00000	55		 push	 ebp
  00001	8b ec		 mov	 ebp, esp
  00003	81 ec cc 00 00
	00		 sub	 esp, 204		; 000000ccH
  00009	53		 push	 ebx
  0000a	56		 push	 esi
  0000b	57		 push	 edi
  0000c	51		 push	 ecx
  0000d	8d 7d f4	 lea	 edi, DWORD PTR [ebp-12]
  00010	b9 03 00 00 00	 mov	 ecx, 3
  00015	b8 cc cc cc cc	 mov	 eax, -858993460		; ccccccccH
  0001a	f3 ab		 rep stosd
  0001c	59		 pop	 ecx
  0001d	89 4d f8	 mov	 DWORD PTR _this$[ebp], ecx
  00020	b9 00 00 00 00	 mov	 ecx, OFFSET __0D019051_xstring
  00025	e8 00 00 00 00	 call	 @__CheckForDebuggerJustMyCode@4

; 3264 :         return assign(_Ptr, _Convert_size<size_type>(_Traits::length(_Ptr)));

  0002a	8b 45 08	 mov	 eax, DWORD PTR __Ptr$[ebp]
  0002d	50		 push	 eax
  0002e	e8 00 00 00 00	 call	 ?length@?$_Narrow_char_traits@DH@std@@SAIQBD@Z ; std::_Narrow_char_traits<char,int>::length
  00033	83 c4 04	 add	 esp, 4
  00036	50		 push	 eax
  00037	e8 00 00 00 00	 call	 ??$_Convert_size@I@std@@YAII@Z ; std::_Convert_size<unsigned int>
  0003c	83 c4 04	 add	 esp, 4
  0003f	50		 push	 eax
  00040	8b 4d 08	 mov	 ecx, DWORD PTR __Ptr$[ebp]
  00043	51		 push	 ecx
  00044	8b 4d f8	 mov	 ecx, DWORD PTR _this$[ebp]
  00047	e8 00 00 00 00	 call	 ?assign@?$basic_string@DU?$char_traits@D@std@@V?$allocator@D@2@@std@@QAEAAV12@QBDI@Z ; std::basic_string<char,std::char_traits<char>,std::allocator<char> >::assign

; 3265 :     }

  0004c	5f		 pop	 edi
  0004d	5e		 pop	 esi
  0004e	5b		 pop	 ebx
  0004f	81 c4 cc 00 00
	00		 add	 esp, 204		; 000000ccH
  00055	3b ec		 cmp	 ebp, esp
  00057	e8 00 00 00 00	 call	 __RTC_CheckEsp
  0005c	8b e5		 mov	 esp, ebp
  0005e	5d		 pop	 ebp
  0005f	c2 04 00	 ret	 4
?assign@?$basic_string@DU?$char_traits@D@std@@V?$allocator@D@2@@std@@QAEAAV12@QBD@Z ENDP ; std::basic_string<char,std::char_traits<char>,std::allocator<char> >::assign
_TEXT	ENDS
; Function compile flags: /Odtp /RTCsu /ZI
; File C:\Program Files (x86)\Microsoft Visual Studio\2019\Community\VC\Tools\MSVC\14.29.30133\include\xstring
;	COMDAT ?assign@?$basic_string@DU?$char_traits@D@std@@V?$allocator@D@2@@std@@QAEAAV12@QBDI@Z
_TEXT	SEGMENT
$T1 = -233						; size = 1
$T2 = -221						; size = 1
__Old_ptr$3 = -20					; size = 4
_this$ = -8						; size = 4
__Ptr$ = 8						; size = 4
__Count$ = 12						; size = 4
?assign@?$basic_string@DU?$char_traits@D@std@@V?$allocator@D@2@@std@@QAEAAV12@QBDI@Z PROC ; std::basic_string<char,std::char_traits<char>,std::allocator<char> >::assign, COMDAT
; _this$ = ecx

; 3244 :         _In_reads_(_Count) const _Elem* const _Ptr, _CRT_GUARDOVERFLOW const size_type _Count) {

  00000	55		 push	 ebp
  00001	8b ec		 mov	 ebp, esp
  00003	81 ec f0 00 00
	00		 sub	 esp, 240		; 000000f0H
  00009	53		 push	 ebx
  0000a	56		 push	 esi
  0000b	57		 push	 edi
  0000c	51		 push	 ecx
  0000d	8d 7d d0	 lea	 edi, DWORD PTR [ebp-48]
  00010	b9 0c 00 00 00	 mov	 ecx, 12			; 0000000cH
  00015	b8 cc cc cc cc	 mov	 eax, -858993460		; ccccccccH
  0001a	f3 ab		 rep stosd
  0001c	59		 pop	 ecx
  0001d	89 4d f8	 mov	 DWORD PTR _this$[ebp], ecx
  00020	b9 00 00 00 00	 mov	 ecx, OFFSET __0D019051_xstring
  00025	e8 00 00 00 00	 call	 @__CheckForDebuggerJustMyCode@4

; 3245 :         // assign [_Ptr, _Ptr + _Count)
; 3246 :         if (_Count <= _Mypair._Myval2._Myres) {

  0002a	8b 45 f8	 mov	 eax, DWORD PTR _this$[ebp]
  0002d	8b 4d 0c	 mov	 ecx, DWORD PTR __Count$[ebp]
  00030	3b 48 18	 cmp	 ecx, DWORD PTR [eax+24]
  00033	77 4a		 ja	 SHORT $LN2@assign

; 3247 :             _Elem* const _Old_ptr   = _Mypair._Myval2._Myptr();

  00035	8b 4d f8	 mov	 ecx, DWORD PTR _this$[ebp]
  00038	e8 00 00 00 00	 call	 ?_Myptr@?$_String_val@U?$_Simple_types@D@std@@@std@@QAEPADXZ ; std::_String_val<std::_Simple_types<char> >::_Myptr
  0003d	89 45 ec	 mov	 DWORD PTR __Old_ptr$3[ebp], eax

; 3248 :             _Mypair._Myval2._Mysize = _Count;

  00040	8b 45 f8	 mov	 eax, DWORD PTR _this$[ebp]
  00043	8b 4d 0c	 mov	 ecx, DWORD PTR __Count$[ebp]
  00046	89 48 14	 mov	 DWORD PTR [eax+20], ecx

; 3249 :             _Traits::move(_Old_ptr, _Ptr, _Count);

  00049	8b 45 0c	 mov	 eax, DWORD PTR __Count$[ebp]
  0004c	50		 push	 eax
  0004d	8b 4d 08	 mov	 ecx, DWORD PTR __Ptr$[ebp]
  00050	51		 push	 ecx
  00051	8b 55 ec	 mov	 edx, DWORD PTR __Old_ptr$3[ebp]
  00054	52		 push	 edx
  00055	e8 00 00 00 00	 call	 ?move@?$_Char_traits@DH@std@@SAPADQADQBDI@Z ; std::_Char_traits<char,int>::move
  0005a	83 c4 0c	 add	 esp, 12			; 0000000cH

; 3250 :             _Traits::assign(_Old_ptr[_Count], _Elem());

  0005d	c6 85 23 ff ff
	ff 00		 mov	 BYTE PTR $T2[ebp], 0
  00064	8d 85 23 ff ff
	ff		 lea	 eax, DWORD PTR $T2[ebp]
  0006a	50		 push	 eax
  0006b	8b 4d ec	 mov	 ecx, DWORD PTR __Old_ptr$3[ebp]
  0006e	03 4d 0c	 add	 ecx, DWORD PTR __Count$[ebp]
  00071	51		 push	 ecx
  00072	e8 00 00 00 00	 call	 ?assign@?$_Narrow_char_traits@DH@std@@SAXAADABD@Z ; std::_Narrow_char_traits<char,int>::assign
  00077	83 c4 08	 add	 esp, 8

; 3251 :             return *this;

  0007a	8b 45 f8	 mov	 eax, DWORD PTR _this$[ebp]
  0007d	eb 20		 jmp	 SHORT $LN1@assign
$LN2@assign:

; 3252 :         }
; 3253 : 
; 3254 :         return _Reallocate_for(

  0007f	33 c0		 xor	 eax, eax
  00081	88 85 17 ff ff
	ff		 mov	 BYTE PTR $T1[ebp], al
  00087	8b 4d 08	 mov	 ecx, DWORD PTR __Ptr$[ebp]
  0008a	51		 push	 ecx
  0008b	0f b6 95 17 ff
	ff ff		 movzx	 edx, BYTE PTR $T1[ebp]
  00092	52		 push	 edx
  00093	8b 45 0c	 mov	 eax, DWORD PTR __Count$[ebp]
  00096	50		 push	 eax
  00097	8b 4d f8	 mov	 ecx, DWORD PTR _this$[ebp]
  0009a	e8 00 00 00 00	 call	 ??$_Reallocate_for@V<lambda_9366063389c5f42a00a5088cf24e69de>@@PBD@?$basic_string@DU?$char_traits@D@std@@V?$allocator@D@2@@std@@AAEAAV01@IV<lambda_9366063389c5f42a00a5088cf24e69de>@@PBD@Z ; std::basic_string<char,std::char_traits<char>,std::allocator<char> >::_Reallocate_for<<lambda_9366063389c5f42a00a5088cf24e69de>,char const *>
$LN1@assign:

; 3255 :             _Count,
; 3256 :             [](_Elem* const _New_ptr, const size_type _Count, const _Elem* const _Ptr) {
; 3257 :                 _Traits::copy(_New_ptr, _Ptr, _Count);
; 3258 :                 _Traits::assign(_New_ptr[_Count], _Elem());
; 3259 :             },
; 3260 :             _Ptr);
; 3261 :     }

  0009f	5f		 pop	 edi
  000a0	5e		 pop	 esi
  000a1	5b		 pop	 ebx
  000a2	81 c4 f0 00 00
	00		 add	 esp, 240		; 000000f0H
  000a8	3b ec		 cmp	 ebp, esp
  000aa	e8 00 00 00 00	 call	 __RTC_CheckEsp
  000af	8b e5		 mov	 esp, ebp
  000b1	5d		 pop	 ebp
  000b2	c2 08 00	 ret	 8
?assign@?$basic_string@DU?$char_traits@D@std@@V?$allocator@D@2@@std@@QAEAAV12@QBDI@Z ENDP ; std::basic_string<char,std::char_traits<char>,std::allocator<char> >::assign
_TEXT	ENDS
; Function compile flags: /Odtp /RTCsu /ZI
; File C:\Program Files (x86)\Microsoft Visual Studio\2019\Community\VC\Tools\MSVC\14.29.30133\include\xstring
;	COMDAT ??4?$basic_string@DU?$char_traits@D@std@@V?$allocator@D@2@@std@@QAEAAV01@QBD@Z
_TEXT	SEGMENT
_this$ = -8						; size = 4
__Ptr$ = 8						; size = 4
??4?$basic_string@DU?$char_traits@D@std@@V?$allocator@D@2@@std@@QAEAAV01@QBD@Z PROC ; std::basic_string<char,std::char_traits<char>,std::allocator<char> >::operator=, COMDAT
; _this$ = ecx

; 3091 :     _CONSTEXPR20_CONTAINER basic_string& operator=(_In_z_ const _Elem* const _Ptr) {

  00000	55		 push	 ebp
  00001	8b ec		 mov	 ebp, esp
  00003	81 ec cc 00 00
	00		 sub	 esp, 204		; 000000ccH
  00009	53		 push	 ebx
  0000a	56		 push	 esi
  0000b	57		 push	 edi
  0000c	51		 push	 ecx
  0000d	8d 7d f4	 lea	 edi, DWORD PTR [ebp-12]
  00010	b9 03 00 00 00	 mov	 ecx, 3
  00015	b8 cc cc cc cc	 mov	 eax, -858993460		; ccccccccH
  0001a	f3 ab		 rep stosd
  0001c	59		 pop	 ecx
  0001d	89 4d f8	 mov	 DWORD PTR _this$[ebp], ecx
  00020	b9 00 00 00 00	 mov	 ecx, OFFSET __0D019051_xstring
  00025	e8 00 00 00 00	 call	 @__CheckForDebuggerJustMyCode@4

; 3092 :         return assign(_Ptr);

  0002a	8b 45 08	 mov	 eax, DWORD PTR __Ptr$[ebp]
  0002d	50		 push	 eax
  0002e	8b 4d f8	 mov	 ecx, DWORD PTR _this$[ebp]
  00031	e8 00 00 00 00	 call	 ?assign@?$basic_string@DU?$char_traits@D@std@@V?$allocator@D@2@@std@@QAEAAV12@QBD@Z ; std::basic_string<char,std::char_traits<char>,std::allocator<char> >::assign

; 3093 :     }

  00036	5f		 pop	 edi
  00037	5e		 pop	 esi
  00038	5b		 pop	 ebx
  00039	81 c4 cc 00 00
	00		 add	 esp, 204		; 000000ccH
  0003f	3b ec		 cmp	 ebp, esp
  00041	e8 00 00 00 00	 call	 __RTC_CheckEsp
  00046	8b e5		 mov	 esp, ebp
  00048	5d		 pop	 ebp
  00049	c2 04 00	 ret	 4
??4?$basic_string@DU?$char_traits@D@std@@V?$allocator@D@2@@std@@QAEAAV01@QBD@Z ENDP ; std::basic_string<char,std::char_traits<char>,std::allocator<char> >::operator=
_TEXT	ENDS
; Function compile flags: /Odtp /RTCsu /ZI
; File C:\Program Files (x86)\Microsoft Visual Studio\2019\Community\VC\Tools\MSVC\14.29.30133\include\xstring
;	COMDAT ??1?$basic_string@DU?$char_traits@D@std@@V?$allocator@D@2@@std@@QAE@XZ
_TEXT	SEGMENT
__To_delete$ = -48					; size = 4
_$S7$ = -33						; size = 1
__Alproxy$ = -24					; size = 4
_this$ = -12						; size = 4
__$ArrayPad$ = -4					; size = 4
??1?$basic_string@DU?$char_traits@D@std@@V?$allocator@D@2@@std@@QAE@XZ PROC ; std::basic_string<char,std::char_traits<char>,std::allocator<char> >::~basic_string<char,std::char_traits<char>,std::allocator<char> >, COMDAT
; _this$ = ecx

; 3002 :     _CONSTEXPR20_CONTAINER ~basic_string() noexcept {

  00000	55		 push	 ebp
  00001	8b ec		 mov	 ebp, esp
  00003	81 ec f4 00 00
	00		 sub	 esp, 244		; 000000f4H
  00009	53		 push	 ebx
  0000a	56		 push	 esi
  0000b	57		 push	 edi
  0000c	51		 push	 ecx
  0000d	8d 7d cc	 lea	 edi, DWORD PTR [ebp-52]
  00010	b9 0d 00 00 00	 mov	 ecx, 13			; 0000000dH
  00015	b8 cc cc cc cc	 mov	 eax, -858993460		; ccccccccH
  0001a	f3 ab		 rep stosd
  0001c	59		 pop	 ecx
  0001d	a1 00 00 00 00	 mov	 eax, DWORD PTR ___security_cookie
  00022	33 c5		 xor	 eax, ebp
  00024	89 45 fc	 mov	 DWORD PTR __$ArrayPad$[ebp], eax
  00027	89 4d f4	 mov	 DWORD PTR _this$[ebp], ecx
  0002a	b9 00 00 00 00	 mov	 ecx, OFFSET __0D019051_xstring
  0002f	e8 00 00 00 00	 call	 @__CheckForDebuggerJustMyCode@4

; 3003 :         _Tidy_deallocate();

  00034	8b 4d f4	 mov	 ecx, DWORD PTR _this$[ebp]
  00037	e8 00 00 00 00	 call	 ?_Tidy_deallocate@?$basic_string@DU?$char_traits@D@std@@V?$allocator@D@2@@std@@AAEXXZ ; std::basic_string<char,std::char_traits<char>,std::allocator<char> >::_Tidy_deallocate

; 3004 : #if _ITERATOR_DEBUG_LEVEL != 0
; 3005 :         auto&& _Alproxy          = _GET_PROXY_ALLOCATOR(_Alty, _Getal());

  0003c	8b 4d f4	 mov	 ecx, DWORD PTR _this$[ebp]
  0003f	e8 00 00 00 00	 call	 ?_Getal@?$basic_string@DU?$char_traits@D@std@@V?$allocator@D@2@@std@@AAEAAV?$allocator@D@2@XZ ; std::basic_string<char,std::char_traits<char>,std::allocator<char> >::_Getal
  00044	50		 push	 eax
  00045	8d 4d df	 lea	 ecx, DWORD PTR _$S7$[ebp]
  00048	e8 00 00 00 00	 call	 ??$?0D@?$allocator@U_Container_proxy@std@@@std@@QAE@ABV?$allocator@D@1@@Z ; std::allocator<std::_Container_proxy>::allocator<std::_Container_proxy><char>
  0004d	8d 45 df	 lea	 eax, DWORD PTR _$S7$[ebp]
  00050	89 45 e8	 mov	 DWORD PTR __Alproxy$[ebp], eax

; 3006 :         const auto _To_delete    = _Mypair._Myval2._Myproxy;

  00053	8b 45 f4	 mov	 eax, DWORD PTR _this$[ebp]
  00056	8b 08		 mov	 ecx, DWORD PTR [eax]
  00058	89 4d d0	 mov	 DWORD PTR __To_delete$[ebp], ecx

; 3007 :         _Mypair._Myval2._Myproxy = nullptr;

  0005b	8b 45 f4	 mov	 eax, DWORD PTR _this$[ebp]
  0005e	c7 00 00 00 00
	00		 mov	 DWORD PTR [eax], 0

; 3008 :         _Delete_plain_internal(_Alproxy, _To_delete);

  00064	8b 45 d0	 mov	 eax, DWORD PTR __To_delete$[ebp]
  00067	50		 push	 eax
  00068	8b 4d e8	 mov	 ecx, DWORD PTR __Alproxy$[ebp]
  0006b	51		 push	 ecx
  0006c	e8 00 00 00 00	 call	 ??$_Delete_plain_internal@V?$allocator@U_Container_proxy@std@@@std@@@std@@YAXAAV?$allocator@U_Container_proxy@std@@@0@QAU_Container_proxy@0@@Z ; std::_Delete_plain_internal<std::allocator<std::_Container_proxy> >
  00071	83 c4 08	 add	 esp, 8

; 3009 : #endif // _ITERATOR_DEBUG_LEVEL != 0
; 3010 :     }

  00074	8b 4d f4	 mov	 ecx, DWORD PTR _this$[ebp]
  00077	e8 00 00 00 00	 call	 ??1?$_Compressed_pair@V?$allocator@D@std@@V?$_String_val@U?$_Simple_types@D@std@@@2@$00@std@@QAE@XZ
  0007c	52		 push	 edx
  0007d	8b cd		 mov	 ecx, ebp
  0007f	50		 push	 eax
  00080	8d 15 00 00 00
	00		 lea	 edx, DWORD PTR $LN5@basic_stri
  00086	e8 00 00 00 00	 call	 @_RTC_CheckStackVars@8
  0008b	58		 pop	 eax
  0008c	5a		 pop	 edx
  0008d	5f		 pop	 edi
  0008e	5e		 pop	 esi
  0008f	5b		 pop	 ebx
  00090	8b 4d fc	 mov	 ecx, DWORD PTR __$ArrayPad$[ebp]
  00093	33 cd		 xor	 ecx, ebp
  00095	e8 00 00 00 00	 call	 @__security_check_cookie@4
  0009a	81 c4 f4 00 00
	00		 add	 esp, 244		; 000000f4H
  000a0	3b ec		 cmp	 ebp, esp
  000a2	e8 00 00 00 00	 call	 __RTC_CheckEsp
  000a7	8b e5		 mov	 esp, ebp
  000a9	5d		 pop	 ebp
  000aa	c3		 ret	 0
  000ab	90		 npad	 1
$LN5@basic_stri:
  000ac	01 00 00 00	 DD	 1
  000b0	00 00 00 00	 DD	 $LN4@basic_stri
$LN4@basic_stri:
  000b4	df ff ff ff	 DD	 -33			; ffffffdfH
  000b8	01 00 00 00	 DD	 1
  000bc	00 00 00 00	 DD	 $LN3@basic_stri
$LN3@basic_stri:
  000c0	24		 DB	 36			; 00000024H
  000c1	53		 DB	 83			; 00000053H
  000c2	37		 DB	 55			; 00000037H
  000c3	00		 DB	 0
??1?$basic_string@DU?$char_traits@D@std@@V?$allocator@D@2@@std@@QAE@XZ ENDP ; std::basic_string<char,std::char_traits<char>,std::allocator<char> >::~basic_string<char,std::char_traits<char>,std::allocator<char> >
_TEXT	ENDS
; Function compile flags: /Odtp /RTCsu /ZI
; File C:\Program Files (x86)\Microsoft Visual Studio\2019\Community\VC\Tools\MSVC\14.29.30133\include\xstring
;	COMDAT ??0?$basic_string@DU?$char_traits@D@std@@V?$allocator@D@2@@std@@QAE@XZ
_TEXT	SEGMENT
$T2 = -233						; size = 1
$T3 = -221						; size = 1
_this$ = -20						; size = 4
__$EHRec$ = -12						; size = 12
??0?$basic_string@DU?$char_traits@D@std@@V?$allocator@D@2@@std@@QAE@XZ PROC ; std::basic_string<char,std::char_traits<char>,std::allocator<char> >::basic_string<char,std::char_traits<char>,std::allocator<char> >, COMDAT
; _this$ = ecx

; 2467 :         : _Mypair(_Zero_then_variadic_args_t{}) {

  00000	55		 push	 ebp
  00001	8b ec		 mov	 ebp, esp
  00003	6a ff		 push	 -1
  00005	68 00 00 00 00	 push	 __ehhandler$??0?$basic_string@DU?$char_traits@D@std@@V?$allocator@D@2@@std@@QAE@XZ
  0000a	64 a1 00 00 00
	00		 mov	 eax, DWORD PTR fs:0
  00010	50		 push	 eax
  00011	81 ec e4 00 00
	00		 sub	 esp, 228		; 000000e4H
  00017	53		 push	 ebx
  00018	56		 push	 esi
  00019	57		 push	 edi
  0001a	51		 push	 ecx
  0001b	8d 7d d0	 lea	 edi, DWORD PTR [ebp-48]
  0001e	b9 09 00 00 00	 mov	 ecx, 9
  00023	b8 cc cc cc cc	 mov	 eax, -858993460		; ccccccccH
  00028	f3 ab		 rep stosd
  0002a	59		 pop	 ecx
  0002b	a1 00 00 00 00	 mov	 eax, DWORD PTR ___security_cookie
  00030	33 c5		 xor	 eax, ebp
  00032	50		 push	 eax
  00033	8d 45 f4	 lea	 eax, DWORD PTR __$EHRec$[ebp]
  00036	64 a3 00 00 00
	00		 mov	 DWORD PTR fs:0, eax
  0003c	89 4d ec	 mov	 DWORD PTR _this$[ebp], ecx
  0003f	b9 00 00 00 00	 mov	 ecx, OFFSET __0D019051_xstring
  00044	e8 00 00 00 00	 call	 @__CheckForDebuggerJustMyCode@4
  00049	0f b6 85 23 ff
	ff ff		 movzx	 eax, BYTE PTR $T3[ebp]
  00050	50		 push	 eax
  00051	8b 4d ec	 mov	 ecx, DWORD PTR _this$[ebp]
  00054	e8 00 00 00 00	 call	 ??$?0$$V@?$_Compressed_pair@V?$allocator@D@std@@V?$_String_val@U?$_Simple_types@D@std@@@2@$00@std@@QAE@U_Zero_then_variadic_args_t@1@@Z ; std::_Compressed_pair<std::allocator<char>,std::_String_val<std::_Simple_types<char> >,1>::_Compressed_pair<std::allocator<char>,std::_String_val<std::_Simple_types<char> >,1><>

; 2468 :         _Mypair._Myval2._Alloc_proxy(_GET_PROXY_ALLOCATOR(_Alty, _Getal()));

  00059	8b 4d ec	 mov	 ecx, DWORD PTR _this$[ebp]
  0005c	e8 00 00 00 00	 call	 ?_Getal@?$basic_string@DU?$char_traits@D@std@@V?$allocator@D@2@@std@@AAEAAV?$allocator@D@2@XZ ; std::basic_string<char,std::char_traits<char>,std::allocator<char> >::_Getal
  00061	50		 push	 eax
  00062	8d 8d 17 ff ff
	ff		 lea	 ecx, DWORD PTR $T2[ebp]
  00068	e8 00 00 00 00	 call	 ??$?0D@?$allocator@U_Container_proxy@std@@@std@@QAE@ABV?$allocator@D@1@@Z ; std::allocator<std::_Container_proxy>::allocator<std::_Container_proxy><char>
  0006d	50		 push	 eax
  0006e	8b 4d ec	 mov	 ecx, DWORD PTR _this$[ebp]
  00071	e8 00 00 00 00	 call	 ??$_Alloc_proxy@V?$allocator@U_Container_proxy@std@@@std@@@_Container_base12@std@@QAEX$$QAV?$allocator@U_Container_proxy@std@@@1@@Z ; std::_Container_base12::_Alloc_proxy<std::allocator<std::_Container_proxy> >

; 2469 :         _Tidy_init();

  00076	8b 4d ec	 mov	 ecx, DWORD PTR _this$[ebp]
  00079	e8 00 00 00 00	 call	 ?_Tidy_init@?$basic_string@DU?$char_traits@D@std@@V?$allocator@D@2@@std@@AAEXXZ ; std::basic_string<char,std::char_traits<char>,std::allocator<char> >::_Tidy_init

; 2470 :     }

  0007e	8b 45 ec	 mov	 eax, DWORD PTR _this$[ebp]
  00081	8b 4d f4	 mov	 ecx, DWORD PTR __$EHRec$[ebp]
  00084	64 89 0d 00 00
	00 00		 mov	 DWORD PTR fs:0, ecx
  0008b	59		 pop	 ecx
  0008c	5f		 pop	 edi
  0008d	5e		 pop	 esi
  0008e	5b		 pop	 ebx
  0008f	81 c4 f0 00 00
	00		 add	 esp, 240		; 000000f0H
  00095	3b ec		 cmp	 ebp, esp
  00097	e8 00 00 00 00	 call	 __RTC_CheckEsp
  0009c	8b e5		 mov	 esp, ebp
  0009e	5d		 pop	 ebp
  0009f	c3		 ret	 0
  000a0	cc		 int	 3
  000a1	cc		 int	 3
  000a2	cc		 int	 3
  000a3	cc		 int	 3
  000a4	cc		 int	 3
_TEXT	ENDS
;	COMDAT text$x
text$x	SEGMENT
__ehhandler$??0?$basic_string@DU?$char_traits@D@std@@V?$allocator@D@2@@std@@QAE@XZ:
  00000	90		 npad	 1
  00001	90		 npad	 1
  00002	8b 54 24 08	 mov	 edx, DWORD PTR [esp+8]
  00006	8d 42 0c	 lea	 eax, DWORD PTR [edx+12]
  00009	8b 8a 0c ff ff
	ff		 mov	 ecx, DWORD PTR [edx-244]
  0000f	33 c8		 xor	 ecx, eax
  00011	e8 00 00 00 00	 call	 @__security_check_cookie@4
  00016	b8 00 00 00 00	 mov	 eax, OFFSET __ehfuncinfo$??0?$basic_string@DU?$char_traits@D@std@@V?$allocator@D@2@@std@@QAE@XZ
  0001b	e9 00 00 00 00	 jmp	 ___CxxFrameHandler3
text$x	ENDS
??0?$basic_string@DU?$char_traits@D@std@@V?$allocator@D@2@@std@@QAE@XZ ENDP ; std::basic_string<char,std::char_traits<char>,std::allocator<char> >::basic_string<char,std::char_traits<char>,std::allocator<char> >
; Function compile flags: /Odtp /RTCsu /ZI
;	COMDAT ??1?$_String_val@U?$_Simple_types@D@std@@@std@@QAE@XZ
_TEXT	SEGMENT
_this$ = -8						; size = 4
??1?$_String_val@U?$_Simple_types@D@std@@@std@@QAE@XZ PROC ; std::_String_val<std::_Simple_types<char> >::~_String_val<std::_Simple_types<char> >, COMDAT
; _this$ = ecx
  00000	55		 push	 ebp
  00001	8b ec		 mov	 ebp, esp
  00003	81 ec cc 00 00
	00		 sub	 esp, 204		; 000000ccH
  00009	53		 push	 ebx
  0000a	56		 push	 esi
  0000b	57		 push	 edi
  0000c	51		 push	 ecx
  0000d	8d 7d f4	 lea	 edi, DWORD PTR [ebp-12]
  00010	b9 03 00 00 00	 mov	 ecx, 3
  00015	b8 cc cc cc cc	 mov	 eax, -858993460		; ccccccccH
  0001a	f3 ab		 rep stosd
  0001c	59		 pop	 ecx
  0001d	89 4d f8	 mov	 DWORD PTR _this$[ebp], ecx
  00020	8b 4d f8	 mov	 ecx, DWORD PTR _this$[ebp]
  00023	83 c1 04	 add	 ecx, 4
  00026	e8 00 00 00 00	 call	 ??1_Bxty@?$_String_val@U?$_Simple_types@D@std@@@std@@QAE@XZ ; std::_String_val<std::_Simple_types<char> >::_Bxty::~_Bxty
  0002b	5f		 pop	 edi
  0002c	5e		 pop	 esi
  0002d	5b		 pop	 ebx
  0002e	81 c4 cc 00 00
	00		 add	 esp, 204		; 000000ccH
  00034	3b ec		 cmp	 ebp, esp
  00036	e8 00 00 00 00	 call	 __RTC_CheckEsp
  0003b	8b e5		 mov	 esp, ebp
  0003d	5d		 pop	 ebp
  0003e	c3		 ret	 0
??1?$_String_val@U?$_Simple_types@D@std@@@std@@QAE@XZ ENDP ; std::_String_val<std::_Simple_types<char> >::~_String_val<std::_Simple_types<char> >
_TEXT	ENDS
; Function compile flags: /Odtp /RTCsu /ZI
; File C:\Program Files (x86)\Microsoft Visual Studio\2019\Community\VC\Tools\MSVC\14.29.30133\include\xstring
;	COMDAT ??1_Bxty@?$_String_val@U?$_Simple_types@D@std@@@std@@QAE@XZ
_TEXT	SEGMENT
_this$ = -8						; size = 4
??1_Bxty@?$_String_val@U?$_Simple_types@D@std@@@std@@QAE@XZ PROC ; std::_String_val<std::_Simple_types<char> >::_Bxty::~_Bxty, COMDAT
; _this$ = ecx

; 2348 :         _CONSTEXPR20_CONTAINER ~_Bxty() noexcept {} // user-provided, for fancy pointers

  00000	55		 push	 ebp
  00001	8b ec		 mov	 ebp, esp
  00003	81 ec cc 00 00
	00		 sub	 esp, 204		; 000000ccH
  00009	53		 push	 ebx
  0000a	56		 push	 esi
  0000b	57		 push	 edi
  0000c	51		 push	 ecx
  0000d	8d 7d f4	 lea	 edi, DWORD PTR [ebp-12]
  00010	b9 03 00 00 00	 mov	 ecx, 3
  00015	b8 cc cc cc cc	 mov	 eax, -858993460		; ccccccccH
  0001a	f3 ab		 rep stosd
  0001c	59		 pop	 ecx
  0001d	89 4d f8	 mov	 DWORD PTR _this$[ebp], ecx
  00020	b9 00 00 00 00	 mov	 ecx, OFFSET __0D019051_xstring
  00025	e8 00 00 00 00	 call	 @__CheckForDebuggerJustMyCode@4
  0002a	5f		 pop	 edi
  0002b	5e		 pop	 esi
  0002c	5b		 pop	 ebx
  0002d	81 c4 cc 00 00
	00		 add	 esp, 204		; 000000ccH
  00033	3b ec		 cmp	 ebp, esp
  00035	e8 00 00 00 00	 call	 __RTC_CheckEsp
  0003a	8b e5		 mov	 esp, ebp
  0003c	5d		 pop	 ebp
  0003d	c3		 ret	 0
??1_Bxty@?$_String_val@U?$_Simple_types@D@std@@@std@@QAE@XZ ENDP ; std::_String_val<std::_Simple_types<char> >::_Bxty::~_Bxty
_TEXT	ENDS
; Function compile flags: /Odtp /RTCsu /ZI
; File C:\Program Files (x86)\Microsoft Visual Studio\2019\Community\VC\Tools\MSVC\14.29.30133\include\xstring
;	COMDAT ??0_Bxty@?$_String_val@U?$_Simple_types@D@std@@@std@@QAE@XZ
_TEXT	SEGMENT
_this$ = -8						; size = 4
??0_Bxty@?$_String_val@U?$_Simple_types@D@std@@@std@@QAE@XZ PROC ; std::_String_val<std::_Simple_types<char> >::_Bxty::_Bxty, COMDAT
; _this$ = ecx

; 2346 :         _CONSTEXPR20_CONTAINER _Bxty() noexcept : _Ptr() {} // user-provided, for fancy pointers

  00000	55		 push	 ebp
  00001	8b ec		 mov	 ebp, esp
  00003	81 ec cc 00 00
	00		 sub	 esp, 204		; 000000ccH
  00009	53		 push	 ebx
  0000a	56		 push	 esi
  0000b	57		 push	 edi
  0000c	51		 push	 ecx
  0000d	8d 7d f4	 lea	 edi, DWORD PTR [ebp-12]
  00010	b9 03 00 00 00	 mov	 ecx, 3
  00015	b8 cc cc cc cc	 mov	 eax, -858993460		; ccccccccH
  0001a	f3 ab		 rep stosd
  0001c	59		 pop	 ecx
  0001d	89 4d f8	 mov	 DWORD PTR _this$[ebp], ecx
  00020	b9 00 00 00 00	 mov	 ecx, OFFSET __0D019051_xstring
  00025	e8 00 00 00 00	 call	 @__CheckForDebuggerJustMyCode@4
  0002a	8b 45 f8	 mov	 eax, DWORD PTR _this$[ebp]
  0002d	c7 00 00 00 00
	00		 mov	 DWORD PTR [eax], 0
  00033	8b 45 f8	 mov	 eax, DWORD PTR _this$[ebp]
  00036	5f		 pop	 edi
  00037	5e		 pop	 esi
  00038	5b		 pop	 ebx
  00039	81 c4 cc 00 00
	00		 add	 esp, 204		; 000000ccH
  0003f	3b ec		 cmp	 ebp, esp
  00041	e8 00 00 00 00	 call	 __RTC_CheckEsp
  00046	8b e5		 mov	 esp, ebp
  00048	5d		 pop	 ebp
  00049	c3		 ret	 0
??0_Bxty@?$_String_val@U?$_Simple_types@D@std@@@std@@QAE@XZ ENDP ; std::_String_val<std::_Simple_types<char> >::_Bxty::_Bxty
_TEXT	ENDS
; Function compile flags: /Odtp /RTCsu /ZI
; File C:\Program Files (x86)\Microsoft Visual Studio\2019\Community\VC\Tools\MSVC\14.29.30133\include\xstring
;	COMDAT ?_Large_string_engaged@?$_String_val@U?$_Simple_types@D@std@@@std@@QBE_NXZ
_TEXT	SEGMENT
tv66 = -208						; size = 4
_this$ = -8						; size = 4
?_Large_string_engaged@?$_String_val@U?$_Simple_types@D@std@@@std@@QBE_NXZ PROC ; std::_String_val<std::_Simple_types<char> >::_Large_string_engaged, COMDAT
; _this$ = ecx

; 2313 :     _CONSTEXPR20_CONTAINER bool _Large_string_engaged() const noexcept {

  00000	55		 push	 ebp
  00001	8b ec		 mov	 ebp, esp
  00003	81 ec d0 00 00
	00		 sub	 esp, 208		; 000000d0H
  00009	53		 push	 ebx
  0000a	56		 push	 esi
  0000b	57		 push	 edi
  0000c	51		 push	 ecx
  0000d	8d 7d f0	 lea	 edi, DWORD PTR [ebp-16]
  00010	b9 04 00 00 00	 mov	 ecx, 4
  00015	b8 cc cc cc cc	 mov	 eax, -858993460		; ccccccccH
  0001a	f3 ab		 rep stosd
  0001c	59		 pop	 ecx
  0001d	89 4d f8	 mov	 DWORD PTR _this$[ebp], ecx
  00020	b9 00 00 00 00	 mov	 ecx, OFFSET __0D019051_xstring
  00025	e8 00 00 00 00	 call	 @__CheckForDebuggerJustMyCode@4

; 2314 : #ifdef __cpp_lib_constexpr_string
; 2315 :         if (_STD is_constant_evaluated()) {
; 2316 :             return true;
; 2317 :         }
; 2318 : #endif // __cpp_lib_constexpr_string
; 2319 :         return _BUF_SIZE <= _Myres;

  0002a	8b 45 f8	 mov	 eax, DWORD PTR _this$[ebp]
  0002d	83 78 18 10	 cmp	 DWORD PTR [eax+24], 16	; 00000010H
  00031	72 0c		 jb	 SHORT $LN3@Large_stri
  00033	c7 85 30 ff ff
	ff 01 00 00 00	 mov	 DWORD PTR tv66[ebp], 1
  0003d	eb 0a		 jmp	 SHORT $LN4@Large_stri
$LN3@Large_stri:
  0003f	c7 85 30 ff ff
	ff 00 00 00 00	 mov	 DWORD PTR tv66[ebp], 0
$LN4@Large_stri:
  00049	8a 85 30 ff ff
	ff		 mov	 al, BYTE PTR tv66[ebp]

; 2320 :     }

  0004f	5f		 pop	 edi
  00050	5e		 pop	 esi
  00051	5b		 pop	 ebx
  00052	81 c4 d0 00 00
	00		 add	 esp, 208		; 000000d0H
  00058	3b ec		 cmp	 ebp, esp
  0005a	e8 00 00 00 00	 call	 __RTC_CheckEsp
  0005f	8b e5		 mov	 esp, ebp
  00061	5d		 pop	 ebp
  00062	c3		 ret	 0
?_Large_string_engaged@?$_String_val@U?$_Simple_types@D@std@@@std@@QBE_NXZ ENDP ; std::_String_val<std::_Simple_types<char> >::_Large_string_engaged
_TEXT	ENDS
; Function compile flags: /Odtp /RTCsu /ZI
; File C:\Program Files (x86)\Microsoft Visual Studio\2019\Community\VC\Tools\MSVC\14.29.30133\include\xstring
;	COMDAT ?_Myptr@?$_String_val@U?$_Simple_types@D@std@@@std@@QBEPBDXZ
_TEXT	SEGMENT
__Result$ = -20						; size = 4
_this$ = -8						; size = 4
?_Myptr@?$_String_val@U?$_Simple_types@D@std@@@std@@QBEPBDXZ PROC ; std::_String_val<std::_Simple_types<char> >::_Myptr, COMDAT
; _this$ = ecx

; 2304 :     _CONSTEXPR20_CONTAINER const value_type* _Myptr() const noexcept {

  00000	55		 push	 ebp
  00001	8b ec		 mov	 ebp, esp
  00003	81 ec d8 00 00
	00		 sub	 esp, 216		; 000000d8H
  00009	53		 push	 ebx
  0000a	56		 push	 esi
  0000b	57		 push	 edi
  0000c	51		 push	 ecx
  0000d	8d 7d e8	 lea	 edi, DWORD PTR [ebp-24]
  00010	b9 06 00 00 00	 mov	 ecx, 6
  00015	b8 cc cc cc cc	 mov	 eax, -858993460		; ccccccccH
  0001a	f3 ab		 rep stosd
  0001c	59		 pop	 ecx
  0001d	89 4d f8	 mov	 DWORD PTR _this$[ebp], ecx
  00020	b9 00 00 00 00	 mov	 ecx, OFFSET __0D019051_xstring
  00025	e8 00 00 00 00	 call	 @__CheckForDebuggerJustMyCode@4

; 2305 :         const value_type* _Result = _Bx._Buf;

  0002a	8b 45 f8	 mov	 eax, DWORD PTR _this$[ebp]
  0002d	83 c0 04	 add	 eax, 4
  00030	89 45 ec	 mov	 DWORD PTR __Result$[ebp], eax

; 2306 :         if (_Large_string_engaged()) {

  00033	8b 4d f8	 mov	 ecx, DWORD PTR _this$[ebp]
  00036	e8 00 00 00 00	 call	 ?_Large_string_engaged@?$_String_val@U?$_Simple_types@D@std@@@std@@QBE_NXZ ; std::_String_val<std::_Simple_types<char> >::_Large_string_engaged
  0003b	0f b6 c0	 movzx	 eax, al
  0003e	85 c0		 test	 eax, eax
  00040	74 12		 je	 SHORT $LN2@Myptr

; 2307 :             _Result = _Unfancy(_Bx._Ptr);

  00042	8b 45 f8	 mov	 eax, DWORD PTR _this$[ebp]
  00045	8b 48 04	 mov	 ecx, DWORD PTR [eax+4]
  00048	51		 push	 ecx
  00049	e8 00 00 00 00	 call	 ??$_Unfancy@D@std@@YAPADPAD@Z ; std::_Unfancy<char>
  0004e	83 c4 04	 add	 esp, 4
  00051	89 45 ec	 mov	 DWORD PTR __Result$[ebp], eax
$LN2@Myptr:

; 2308 :         }
; 2309 : 
; 2310 :         return _Result;

  00054	8b 45 ec	 mov	 eax, DWORD PTR __Result$[ebp]

; 2311 :     }

  00057	5f		 pop	 edi
  00058	5e		 pop	 esi
  00059	5b		 pop	 ebx
  0005a	81 c4 d8 00 00
	00		 add	 esp, 216		; 000000d8H
  00060	3b ec		 cmp	 ebp, esp
  00062	e8 00 00 00 00	 call	 __RTC_CheckEsp
  00067	8b e5		 mov	 esp, ebp
  00069	5d		 pop	 ebp
  0006a	c3		 ret	 0
?_Myptr@?$_String_val@U?$_Simple_types@D@std@@@std@@QBEPBDXZ ENDP ; std::_String_val<std::_Simple_types<char> >::_Myptr
_TEXT	ENDS
; Function compile flags: /Odtp /RTCsu /ZI
; File C:\Program Files (x86)\Microsoft Visual Studio\2019\Community\VC\Tools\MSVC\14.29.30133\include\xstring
;	COMDAT ?_Myptr@?$_String_val@U?$_Simple_types@D@std@@@std@@QAEPADXZ
_TEXT	SEGMENT
__Result$ = -20						; size = 4
_this$ = -8						; size = 4
?_Myptr@?$_String_val@U?$_Simple_types@D@std@@@std@@QAEPADXZ PROC ; std::_String_val<std::_Simple_types<char> >::_Myptr, COMDAT
; _this$ = ecx

; 2295 :     _CONSTEXPR20_CONTAINER value_type* _Myptr() noexcept {

  00000	55		 push	 ebp
  00001	8b ec		 mov	 ebp, esp
  00003	81 ec d8 00 00
	00		 sub	 esp, 216		; 000000d8H
  00009	53		 push	 ebx
  0000a	56		 push	 esi
  0000b	57		 push	 edi
  0000c	51		 push	 ecx
  0000d	8d 7d e8	 lea	 edi, DWORD PTR [ebp-24]
  00010	b9 06 00 00 00	 mov	 ecx, 6
  00015	b8 cc cc cc cc	 mov	 eax, -858993460		; ccccccccH
  0001a	f3 ab		 rep stosd
  0001c	59		 pop	 ecx
  0001d	89 4d f8	 mov	 DWORD PTR _this$[ebp], ecx
  00020	b9 00 00 00 00	 mov	 ecx, OFFSET __0D019051_xstring
  00025	e8 00 00 00 00	 call	 @__CheckForDebuggerJustMyCode@4

; 2296 :         value_type* _Result = _Bx._Buf;

  0002a	8b 45 f8	 mov	 eax, DWORD PTR _this$[ebp]
  0002d	83 c0 04	 add	 eax, 4
  00030	89 45 ec	 mov	 DWORD PTR __Result$[ebp], eax

; 2297 :         if (_Large_string_engaged()) {

  00033	8b 4d f8	 mov	 ecx, DWORD PTR _this$[ebp]
  00036	e8 00 00 00 00	 call	 ?_Large_string_engaged@?$_String_val@U?$_Simple_types@D@std@@@std@@QBE_NXZ ; std::_String_val<std::_Simple_types<char> >::_Large_string_engaged
  0003b	0f b6 c0	 movzx	 eax, al
  0003e	85 c0		 test	 eax, eax
  00040	74 12		 je	 SHORT $LN2@Myptr

; 2298 :             _Result = _Unfancy(_Bx._Ptr);

  00042	8b 45 f8	 mov	 eax, DWORD PTR _this$[ebp]
  00045	8b 48 04	 mov	 ecx, DWORD PTR [eax+4]
  00048	51		 push	 ecx
  00049	e8 00 00 00 00	 call	 ??$_Unfancy@D@std@@YAPADPAD@Z ; std::_Unfancy<char>
  0004e	83 c4 04	 add	 esp, 4
  00051	89 45 ec	 mov	 DWORD PTR __Result$[ebp], eax
$LN2@Myptr:

; 2299 :         }
; 2300 : 
; 2301 :         return _Result;

  00054	8b 45 ec	 mov	 eax, DWORD PTR __Result$[ebp]

; 2302 :     }

  00057	5f		 pop	 edi
  00058	5e		 pop	 esi
  00059	5b		 pop	 ebx
  0005a	81 c4 d8 00 00
	00		 add	 esp, 216		; 000000d8H
  00060	3b ec		 cmp	 ebp, esp
  00062	e8 00 00 00 00	 call	 __RTC_CheckEsp
  00067	8b e5		 mov	 esp, ebp
  00069	5d		 pop	 ebp
  0006a	c3		 ret	 0
?_Myptr@?$_String_val@U?$_Simple_types@D@std@@@std@@QAEPADXZ ENDP ; std::_String_val<std::_Simple_types<char> >::_Myptr
_TEXT	ENDS
; Function compile flags: /Odtp /RTCsu /ZI
; File C:\Program Files (x86)\Microsoft Visual Studio\2019\Community\VC\Tools\MSVC\14.29.30133\include\xstring
;	COMDAT ??0?$_String_val@U?$_Simple_types@D@std@@@std@@QAE@XZ
_TEXT	SEGMENT
_this$ = -8						; size = 4
??0?$_String_val@U?$_Simple_types@D@std@@@std@@QAE@XZ PROC ; std::_String_val<std::_Simple_types<char> >::_String_val<std::_Simple_types<char> >, COMDAT
; _this$ = ecx

; 2284 :     _CONSTEXPR20_CONTAINER _String_val() noexcept : _Bx() {}

  00000	55		 push	 ebp
  00001	8b ec		 mov	 ebp, esp
  00003	81 ec cc 00 00
	00		 sub	 esp, 204		; 000000ccH
  00009	53		 push	 ebx
  0000a	56		 push	 esi
  0000b	57		 push	 edi
  0000c	51		 push	 ecx
  0000d	8d 7d f4	 lea	 edi, DWORD PTR [ebp-12]
  00010	b9 03 00 00 00	 mov	 ecx, 3
  00015	b8 cc cc cc cc	 mov	 eax, -858993460		; ccccccccH
  0001a	f3 ab		 rep stosd
  0001c	59		 pop	 ecx
  0001d	89 4d f8	 mov	 DWORD PTR _this$[ebp], ecx
  00020	b9 00 00 00 00	 mov	 ecx, OFFSET __0D019051_xstring
  00025	e8 00 00 00 00	 call	 @__CheckForDebuggerJustMyCode@4
  0002a	8b 4d f8	 mov	 ecx, DWORD PTR _this$[ebp]
  0002d	e8 00 00 00 00	 call	 ??0_Container_base12@std@@QAE@XZ ; std::_Container_base12::_Container_base12
  00032	8b 4d f8	 mov	 ecx, DWORD PTR _this$[ebp]
  00035	83 c1 04	 add	 ecx, 4
  00038	e8 00 00 00 00	 call	 ??0_Bxty@?$_String_val@U?$_Simple_types@D@std@@@std@@QAE@XZ ; std::_String_val<std::_Simple_types<char> >::_Bxty::_Bxty

; 2285 : 
; 2286 :     // length of internal buffer, [1, 16]:
; 2287 :     static constexpr size_type _BUF_SIZE = 16 / sizeof(value_type) < 1 ? 1 : 16 / sizeof(value_type);
; 2288 :     // roundup mask for allocated buffers, [0, 15]:
; 2289 :     static constexpr size_type _ALLOC_MASK = sizeof(value_type) <= 1 ? 15
; 2290 :                                            : sizeof(value_type) <= 2 ? 7
; 2291 :                                            : sizeof(value_type) <= 4 ? 3
; 2292 :                                            : sizeof(value_type) <= 8 ? 1
; 2293 :                                                                      : 0;
; 2294 : 
; 2295 :     _CONSTEXPR20_CONTAINER value_type* _Myptr() noexcept {
; 2296 :         value_type* _Result = _Bx._Buf;
; 2297 :         if (_Large_string_engaged()) {
; 2298 :             _Result = _Unfancy(_Bx._Ptr);
; 2299 :         }
; 2300 : 
; 2301 :         return _Result;
; 2302 :     }
; 2303 : 
; 2304 :     _CONSTEXPR20_CONTAINER const value_type* _Myptr() const noexcept {
; 2305 :         const value_type* _Result = _Bx._Buf;
; 2306 :         if (_Large_string_engaged()) {
; 2307 :             _Result = _Unfancy(_Bx._Ptr);
; 2308 :         }
; 2309 : 
; 2310 :         return _Result;
; 2311 :     }
; 2312 : 
; 2313 :     _CONSTEXPR20_CONTAINER bool _Large_string_engaged() const noexcept {
; 2314 : #ifdef __cpp_lib_constexpr_string
; 2315 :         if (_STD is_constant_evaluated()) {
; 2316 :             return true;
; 2317 :         }
; 2318 : #endif // __cpp_lib_constexpr_string
; 2319 :         return _BUF_SIZE <= _Myres;
; 2320 :     }
; 2321 : 
; 2322 :     _CONSTEXPR20_CONTAINER void _Check_offset(const size_type _Off) const {
; 2323 :         // checks whether _Off is in the bounds of [0, size()]
; 2324 :         if (_Mysize < _Off) {
; 2325 :             _Xran();
; 2326 :         }
; 2327 :     }
; 2328 : 
; 2329 :     _CONSTEXPR20_CONTAINER void _Check_offset_exclusive(const size_type _Off) const {
; 2330 :         // checks whether _Off is in the bounds of [0, size())
; 2331 :         if (_Mysize <= _Off) {
; 2332 :             _Xran();
; 2333 :         }
; 2334 :     }
; 2335 : 
; 2336 :     [[noreturn]] static void _Xran() {
; 2337 :         _Xout_of_range("invalid string position");
; 2338 :     }
; 2339 : 
; 2340 :     _CONSTEXPR20_CONTAINER size_type _Clamp_suffix_size(const size_type _Off, const size_type _Size) const noexcept {
; 2341 :         // trims _Size to the longest it can be assuming a string at/after _Off
; 2342 :         return (_STD min)(_Size, _Mysize - _Off);
; 2343 :     }
; 2344 : 
; 2345 :     union _Bxty { // storage for small buffer or pointer to larger one
; 2346 :         _CONSTEXPR20_CONTAINER _Bxty() noexcept : _Ptr() {} // user-provided, for fancy pointers
; 2347 : 
; 2348 :         _CONSTEXPR20_CONTAINER ~_Bxty() noexcept {} // user-provided, for fancy pointers
; 2349 : 
; 2350 :         value_type _Buf[_BUF_SIZE];
; 2351 :         pointer _Ptr;
; 2352 :         char _Alias[_BUF_SIZE]; // TRANSITION, ABI: _Alias is preserved for binary compatibility (especially /clr)
; 2353 :     } _Bx;
; 2354 : 
; 2355 :     size_type _Mysize = 0; // current length of string

  0003d	8b 45 f8	 mov	 eax, DWORD PTR _this$[ebp]
  00040	c7 40 14 00 00
	00 00		 mov	 DWORD PTR [eax+20], 0

; 2356 :     size_type _Myres  = 0; // current storage reserved for string

  00047	8b 45 f8	 mov	 eax, DWORD PTR _this$[ebp]
  0004a	c7 40 18 00 00
	00 00		 mov	 DWORD PTR [eax+24], 0

; 2284 :     _CONSTEXPR20_CONTAINER _String_val() noexcept : _Bx() {}

  00051	8b 45 f8	 mov	 eax, DWORD PTR _this$[ebp]
  00054	5f		 pop	 edi
  00055	5e		 pop	 esi
  00056	5b		 pop	 ebx
  00057	81 c4 cc 00 00
	00		 add	 esp, 204		; 000000ccH
  0005d	3b ec		 cmp	 ebp, esp
  0005f	e8 00 00 00 00	 call	 __RTC_CheckEsp
  00064	8b e5		 mov	 esp, ebp
  00066	5d		 pop	 ebp
  00067	c3		 ret	 0
??0?$_String_val@U?$_Simple_types@D@std@@@std@@QAE@XZ ENDP ; std::_String_val<std::_Simple_types<char> >::_String_val<std::_Simple_types<char> >
_TEXT	ENDS
; Function compile flags: /Odtp /RTCsu /ZI
; File C:\Program Files (x86)\Microsoft Visual Studio\2019\Community\VC\Tools\MSVC\14.29.30133\include\xmemory
;	COMDAT ?max_size@?$_Default_allocator_traits@V?$allocator@D@std@@@std@@SAIABV?$allocator@D@2@@Z
_TEXT	SEGMENT
___formal$ = 8						; size = 4
?max_size@?$_Default_allocator_traits@V?$allocator@D@std@@@std@@SAIABV?$allocator@D@2@@Z PROC ; std::_Default_allocator_traits<std::allocator<char> >::max_size, COMDAT

; 727  :     _NODISCARD static _CONSTEXPR20_DYNALLOC size_type max_size(const _Alloc&) noexcept {

  00000	55		 push	 ebp
  00001	8b ec		 mov	 ebp, esp
  00003	81 ec c0 00 00
	00		 sub	 esp, 192		; 000000c0H
  00009	53		 push	 ebx
  0000a	56		 push	 esi
  0000b	57		 push	 edi
  0000c	8b fd		 mov	 edi, ebp
  0000e	33 c9		 xor	 ecx, ecx
  00010	b8 cc cc cc cc	 mov	 eax, -858993460		; ccccccccH
  00015	f3 ab		 rep stosd
  00017	b9 00 00 00 00	 mov	 ecx, OFFSET __79D216CD_xmemory
  0001c	e8 00 00 00 00	 call	 @__CheckForDebuggerJustMyCode@4

; 728  :         return static_cast<size_t>(-1) / sizeof(value_type);

  00021	83 c8 ff	 or	 eax, -1

; 729  :     }

  00024	5f		 pop	 edi
  00025	5e		 pop	 esi
  00026	5b		 pop	 ebx
  00027	81 c4 c0 00 00
	00		 add	 esp, 192		; 000000c0H
  0002d	3b ec		 cmp	 ebp, esp
  0002f	e8 00 00 00 00	 call	 __RTC_CheckEsp
  00034	8b e5		 mov	 esp, ebp
  00036	5d		 pop	 ebp
  00037	c3		 ret	 0
?max_size@?$_Default_allocator_traits@V?$allocator@D@std@@@std@@SAIABV?$allocator@D@2@@Z ENDP ; std::_Default_allocator_traits<std::allocator<char> >::max_size
_TEXT	ENDS
; Function compile flags: /Odtp /RTCsu /ZI
; File C:\Program Files (x86)\Microsoft Visual Studio\2019\Community\VC\Tools\MSVC\14.29.30133\include\xmemory
;	COMDAT ?allocate@?$allocator@D@std@@QAEPADI@Z
_TEXT	SEGMENT
_this$ = -8						; size = 4
__Count$ = 8						; size = 4
?allocate@?$allocator@D@std@@QAEPADI@Z PROC		; std::allocator<char>::allocate, COMDAT
; _this$ = ecx

; 838  :     _NODISCARD _CONSTEXPR20_DYNALLOC __declspec(allocator) _Ty* allocate(_CRT_GUARDOVERFLOW const size_t _Count) {

  00000	55		 push	 ebp
  00001	8b ec		 mov	 ebp, esp
  00003	81 ec cc 00 00
	00		 sub	 esp, 204		; 000000ccH
  00009	53		 push	 ebx
  0000a	56		 push	 esi
  0000b	57		 push	 edi
  0000c	51		 push	 ecx
  0000d	8d 7d f4	 lea	 edi, DWORD PTR [ebp-12]
  00010	b9 03 00 00 00	 mov	 ecx, 3
  00015	b8 cc cc cc cc	 mov	 eax, -858993460		; ccccccccH
  0001a	f3 ab		 rep stosd
  0001c	59		 pop	 ecx
  0001d	89 4d f8	 mov	 DWORD PTR _this$[ebp], ecx
  00020	b9 00 00 00 00	 mov	 ecx, OFFSET __79D216CD_xmemory
  00025	e8 00 00 00 00	 call	 @__CheckForDebuggerJustMyCode@4

; 839  :         return static_cast<_Ty*>(_Allocate<_New_alignof<_Ty>>(_Get_size_of_n<sizeof(_Ty)>(_Count)));

  0002a	8b 45 08	 mov	 eax, DWORD PTR __Count$[ebp]
  0002d	50		 push	 eax
  0002e	e8 00 00 00 00	 call	 ??$_Get_size_of_n@$00@std@@YAII@Z ; std::_Get_size_of_n<1>
  00033	83 c4 04	 add	 esp, 4
  00036	50		 push	 eax
  00037	e8 00 00 00 00	 call	 ??$_Allocate@$07U_Default_allocate_traits@std@@$0A@@std@@YAPAXI@Z ; std::_Allocate<8,std::_Default_allocate_traits,0>
  0003c	83 c4 04	 add	 esp, 4

; 840  :     }

  0003f	5f		 pop	 edi
  00040	5e		 pop	 esi
  00041	5b		 pop	 ebx
  00042	81 c4 cc 00 00
	00		 add	 esp, 204		; 000000ccH
  00048	3b ec		 cmp	 ebp, esp
  0004a	e8 00 00 00 00	 call	 __RTC_CheckEsp
  0004f	8b e5		 mov	 esp, ebp
  00051	5d		 pop	 ebp
  00052	c2 04 00	 ret	 4
?allocate@?$allocator@D@std@@QAEPADI@Z ENDP		; std::allocator<char>::allocate
_TEXT	ENDS
; Function compile flags: /Odtp /RTCsu /ZI
; File C:\Program Files (x86)\Microsoft Visual Studio\2019\Community\VC\Tools\MSVC\14.29.30133\include\xmemory
;	COMDAT ?deallocate@?$allocator@D@std@@QAEXQADI@Z
_TEXT	SEGMENT
_this$ = -8						; size = 4
__Ptr$ = 8						; size = 4
__Count$ = 12						; size = 4
?deallocate@?$allocator@D@std@@QAEXQADI@Z PROC		; std::allocator<char>::deallocate, COMDAT
; _this$ = ecx

; 833  :     _CONSTEXPR20_DYNALLOC void deallocate(_Ty* const _Ptr, const size_t _Count) {

  00000	55		 push	 ebp
  00001	8b ec		 mov	 ebp, esp
  00003	81 ec cc 00 00
	00		 sub	 esp, 204		; 000000ccH
  00009	53		 push	 ebx
  0000a	56		 push	 esi
  0000b	57		 push	 edi
  0000c	51		 push	 ecx
  0000d	8d 7d f4	 lea	 edi, DWORD PTR [ebp-12]
  00010	b9 03 00 00 00	 mov	 ecx, 3
  00015	b8 cc cc cc cc	 mov	 eax, -858993460		; ccccccccH
  0001a	f3 ab		 rep stosd
  0001c	59		 pop	 ecx
  0001d	89 4d f8	 mov	 DWORD PTR _this$[ebp], ecx
  00020	b9 00 00 00 00	 mov	 ecx, OFFSET __79D216CD_xmemory
  00025	e8 00 00 00 00	 call	 @__CheckForDebuggerJustMyCode@4

; 834  :         // no overflow check on the following multiply; we assume _Allocate did that check
; 835  :         _Deallocate<_New_alignof<_Ty>>(_Ptr, sizeof(_Ty) * _Count);

  0002a	8b 45 0c	 mov	 eax, DWORD PTR __Count$[ebp]
  0002d	50		 push	 eax
  0002e	8b 4d 08	 mov	 ecx, DWORD PTR __Ptr$[ebp]
  00031	51		 push	 ecx
  00032	e8 00 00 00 00	 call	 ??$_Deallocate@$07$0A@@std@@YAXPAXI@Z ; std::_Deallocate<8,0>
  00037	83 c4 08	 add	 esp, 8

; 836  :     }

  0003a	5f		 pop	 edi
  0003b	5e		 pop	 esi
  0003c	5b		 pop	 ebx
  0003d	81 c4 cc 00 00
	00		 add	 esp, 204		; 000000ccH
  00043	3b ec		 cmp	 ebp, esp
  00045	e8 00 00 00 00	 call	 __RTC_CheckEsp
  0004a	8b e5		 mov	 esp, ebp
  0004c	5d		 pop	 ebp
  0004d	c2 08 00	 ret	 8
?deallocate@?$allocator@D@std@@QAEXQADI@Z ENDP		; std::allocator<char>::deallocate
_TEXT	ENDS
; Function compile flags: /Odtp /RTCsu /ZI
; File C:\Program Files (x86)\Microsoft Visual Studio\2019\Community\VC\Tools\MSVC\14.29.30133\include\xmemory
;	COMDAT ??0?$allocator@D@std@@QAE@XZ
_TEXT	SEGMENT
_this$ = -8						; size = 4
??0?$allocator@D@std@@QAE@XZ PROC			; std::allocator<char>::allocator<char>, COMDAT
; _this$ = ecx

; 825  :     constexpr allocator() noexcept {}

  00000	55		 push	 ebp
  00001	8b ec		 mov	 ebp, esp
  00003	81 ec cc 00 00
	00		 sub	 esp, 204		; 000000ccH
  00009	53		 push	 ebx
  0000a	56		 push	 esi
  0000b	57		 push	 edi
  0000c	51		 push	 ecx
  0000d	8d 7d f4	 lea	 edi, DWORD PTR [ebp-12]
  00010	b9 03 00 00 00	 mov	 ecx, 3
  00015	b8 cc cc cc cc	 mov	 eax, -858993460		; ccccccccH
  0001a	f3 ab		 rep stosd
  0001c	59		 pop	 ecx
  0001d	89 4d f8	 mov	 DWORD PTR _this$[ebp], ecx
  00020	b9 00 00 00 00	 mov	 ecx, OFFSET __79D216CD_xmemory
  00025	e8 00 00 00 00	 call	 @__CheckForDebuggerJustMyCode@4
  0002a	8b 45 f8	 mov	 eax, DWORD PTR _this$[ebp]
  0002d	5f		 pop	 edi
  0002e	5e		 pop	 esi
  0002f	5b		 pop	 ebx
  00030	81 c4 cc 00 00
	00		 add	 esp, 204		; 000000ccH
  00036	3b ec		 cmp	 ebp, esp
  00038	e8 00 00 00 00	 call	 __RTC_CheckEsp
  0003d	8b e5		 mov	 esp, ebp
  0003f	5d		 pop	 ebp
  00040	c3		 ret	 0
??0?$allocator@D@std@@QAE@XZ ENDP			; std::allocator<char>::allocator<char>
_TEXT	ENDS
; Function compile flags: /Odtp /RTCsu /ZI
; File C:\Program Files (x86)\Microsoft Visual Studio\2019\Community\VC\Tools\MSVC\14.29.30133\include\xstring
;	COMDAT ?_Xlen_string@std@@YAXXZ
_TEXT	SEGMENT
?_Xlen_string@std@@YAXXZ PROC				; std::_Xlen_string, COMDAT

; 2373 : [[noreturn]] inline void _Xlen_string() {

  00000	55		 push	 ebp
  00001	8b ec		 mov	 ebp, esp
  00003	81 ec c0 00 00
	00		 sub	 esp, 192		; 000000c0H
  00009	53		 push	 ebx
  0000a	56		 push	 esi
  0000b	57		 push	 edi
  0000c	8b fd		 mov	 edi, ebp
  0000e	33 c9		 xor	 ecx, ecx
  00010	b8 cc cc cc cc	 mov	 eax, -858993460		; ccccccccH
  00015	f3 ab		 rep stosd
  00017	b9 00 00 00 00	 mov	 ecx, OFFSET __0D019051_xstring
  0001c	e8 00 00 00 00	 call	 @__CheckForDebuggerJustMyCode@4

; 2374 :     _Xlength_error("string too long");

  00021	68 00 00 00 00	 push	 OFFSET ??_C@_0BA@JFNIOLAK@string?5too?5long@
  00026	e8 00 00 00 00	 call	 ?_Xlength_error@std@@YAXPBD@Z ; std::_Xlength_error
$LN2@Xlen_strin:

; 2375 : }

  0002b	5f		 pop	 edi
  0002c	5e		 pop	 esi
  0002d	5b		 pop	 ebx
  0002e	81 c4 c0 00 00
	00		 add	 esp, 192		; 000000c0H
  00034	3b ec		 cmp	 ebp, esp
  00036	e8 00 00 00 00	 call	 __RTC_CheckEsp
  0003b	8b e5		 mov	 esp, ebp
  0003d	5d		 pop	 ebp
  0003e	c3		 ret	 0
?_Xlen_string@std@@YAXXZ ENDP				; std::_Xlen_string
_TEXT	ENDS
; Function compile flags: /Odtp /RTCsu /ZI
; File C:\Program Files (x86)\Microsoft Visual Studio\2019\Community\VC\Tools\MSVC\14.29.30133\include\xstring
;	COMDAT ?eof@?$_Narrow_char_traits@DH@std@@SAHXZ
_TEXT	SEGMENT
?eof@?$_Narrow_char_traits@DH@std@@SAHXZ PROC		; std::_Narrow_char_traits<char,int>::eof, COMDAT

; 477  :     _NODISCARD static constexpr int_type eof() noexcept {

  00000	55		 push	 ebp
  00001	8b ec		 mov	 ebp, esp
  00003	81 ec c0 00 00
	00		 sub	 esp, 192		; 000000c0H
  00009	53		 push	 ebx
  0000a	56		 push	 esi
  0000b	57		 push	 edi
  0000c	8b fd		 mov	 edi, ebp
  0000e	33 c9		 xor	 ecx, ecx
  00010	b8 cc cc cc cc	 mov	 eax, -858993460		; ccccccccH
  00015	f3 ab		 rep stosd
  00017	b9 00 00 00 00	 mov	 ecx, OFFSET __0D019051_xstring
  0001c	e8 00 00 00 00	 call	 @__CheckForDebuggerJustMyCode@4

; 478  :         return static_cast<int_type>(EOF);

  00021	83 c8 ff	 or	 eax, -1

; 479  :     }

  00024	5f		 pop	 edi
  00025	5e		 pop	 esi
  00026	5b		 pop	 ebx
  00027	81 c4 c0 00 00
	00		 add	 esp, 192		; 000000c0H
  0002d	3b ec		 cmp	 ebp, esp
  0002f	e8 00 00 00 00	 call	 __RTC_CheckEsp
  00034	8b e5		 mov	 esp, ebp
  00036	5d		 pop	 ebp
  00037	c3		 ret	 0
?eof@?$_Narrow_char_traits@DH@std@@SAHXZ ENDP		; std::_Narrow_char_traits<char,int>::eof
_TEXT	ENDS
; Function compile flags: /Odtp /RTCsu /ZI
; File C:\Program Files (x86)\Microsoft Visual Studio\2019\Community\VC\Tools\MSVC\14.29.30133\include\xstring
;	COMDAT ?eq_int_type@?$_Narrow_char_traits@DH@std@@SA_NABH0@Z
_TEXT	SEGMENT
tv65 = -196						; size = 4
__Left$ = 8						; size = 4
__Right$ = 12						; size = 4
?eq_int_type@?$_Narrow_char_traits@DH@std@@SA_NABH0@Z PROC ; std::_Narrow_char_traits<char,int>::eq_int_type, COMDAT

; 469  :     _NODISCARD static constexpr bool eq_int_type(const int_type& _Left, const int_type& _Right) noexcept {

  00000	55		 push	 ebp
  00001	8b ec		 mov	 ebp, esp
  00003	81 ec c4 00 00
	00		 sub	 esp, 196		; 000000c4H
  00009	53		 push	 ebx
  0000a	56		 push	 esi
  0000b	57		 push	 edi
  0000c	8d 7d fc	 lea	 edi, DWORD PTR [ebp-4]
  0000f	b9 01 00 00 00	 mov	 ecx, 1
  00014	b8 cc cc cc cc	 mov	 eax, -858993460		; ccccccccH
  00019	f3 ab		 rep stosd
  0001b	b9 00 00 00 00	 mov	 ecx, OFFSET __0D019051_xstring
  00020	e8 00 00 00 00	 call	 @__CheckForDebuggerJustMyCode@4

; 470  :         return _Left == _Right;

  00025	8b 45 08	 mov	 eax, DWORD PTR __Left$[ebp]
  00028	8b 4d 0c	 mov	 ecx, DWORD PTR __Right$[ebp]
  0002b	8b 10		 mov	 edx, DWORD PTR [eax]
  0002d	3b 11		 cmp	 edx, DWORD PTR [ecx]
  0002f	75 0c		 jne	 SHORT $LN3@eq_int_typ
  00031	c7 85 3c ff ff
	ff 01 00 00 00	 mov	 DWORD PTR tv65[ebp], 1
  0003b	eb 0a		 jmp	 SHORT $LN4@eq_int_typ
$LN3@eq_int_typ:
  0003d	c7 85 3c ff ff
	ff 00 00 00 00	 mov	 DWORD PTR tv65[ebp], 0
$LN4@eq_int_typ:
  00047	8a 85 3c ff ff
	ff		 mov	 al, BYTE PTR tv65[ebp]

; 471  :     }

  0004d	5f		 pop	 edi
  0004e	5e		 pop	 esi
  0004f	5b		 pop	 ebx
  00050	81 c4 c4 00 00
	00		 add	 esp, 196		; 000000c4H
  00056	3b ec		 cmp	 ebp, esp
  00058	e8 00 00 00 00	 call	 __RTC_CheckEsp
  0005d	8b e5		 mov	 esp, ebp
  0005f	5d		 pop	 ebp
  00060	c3		 ret	 0
?eq_int_type@?$_Narrow_char_traits@DH@std@@SA_NABH0@Z ENDP ; std::_Narrow_char_traits<char,int>::eq_int_type
_TEXT	ENDS
; Function compile flags: /Odtp /RTCsu /ZI
; File C:\Program Files (x86)\Microsoft Visual Studio\2019\Community\VC\Tools\MSVC\14.29.30133\include\xstring
;	COMDAT ?assign@?$_Narrow_char_traits@DH@std@@SAXAADABD@Z
_TEXT	SEGMENT
__Left$ = 8						; size = 4
__Right$ = 12						; size = 4
?assign@?$_Narrow_char_traits@DH@std@@SAXAADABD@Z PROC	; std::_Narrow_char_traits<char,int>::assign, COMDAT

; 449  :     static _CONSTEXPR17 void assign(_Elem& _Left, const _Elem& _Right) noexcept {

  00000	55		 push	 ebp
  00001	8b ec		 mov	 ebp, esp
  00003	81 ec c0 00 00
	00		 sub	 esp, 192		; 000000c0H
  00009	53		 push	 ebx
  0000a	56		 push	 esi
  0000b	57		 push	 edi
  0000c	8b fd		 mov	 edi, ebp
  0000e	33 c9		 xor	 ecx, ecx
  00010	b8 cc cc cc cc	 mov	 eax, -858993460		; ccccccccH
  00015	f3 ab		 rep stosd
  00017	b9 00 00 00 00	 mov	 ecx, OFFSET __0D019051_xstring
  0001c	e8 00 00 00 00	 call	 @__CheckForDebuggerJustMyCode@4

; 450  :         _Left = _Right;

  00021	8b 45 08	 mov	 eax, DWORD PTR __Left$[ebp]
  00024	8b 4d 0c	 mov	 ecx, DWORD PTR __Right$[ebp]
  00027	8a 11		 mov	 dl, BYTE PTR [ecx]
  00029	88 10		 mov	 BYTE PTR [eax], dl

; 451  :     }

  0002b	5f		 pop	 edi
  0002c	5e		 pop	 esi
  0002d	5b		 pop	 ebx
  0002e	81 c4 c0 00 00
	00		 add	 esp, 192		; 000000c0H
  00034	3b ec		 cmp	 ebp, esp
  00036	e8 00 00 00 00	 call	 __RTC_CheckEsp
  0003b	8b e5		 mov	 esp, ebp
  0003d	5d		 pop	 ebp
  0003e	c3		 ret	 0
?assign@?$_Narrow_char_traits@DH@std@@SAXAADABD@Z ENDP	; std::_Narrow_char_traits<char,int>::assign
_TEXT	ENDS
; Function compile flags: /Odtp /RTCsu /ZI
; File C:\Program Files (x86)\Microsoft Visual Studio\2019\Community\VC\Tools\MSVC\14.29.30133\include\xstring
;	COMDAT ?length@?$_Narrow_char_traits@DH@std@@SAIQBD@Z
_TEXT	SEGMENT
__First$ = 8						; size = 4
?length@?$_Narrow_char_traits@DH@std@@SAIQBD@Z PROC	; std::_Narrow_char_traits<char,int>::length, COMDAT

; 396  :     _NODISCARD static _CONSTEXPR17 size_t length(_In_z_ const _Elem* const _First) noexcept /* strengthened */ {

  00000	55		 push	 ebp
  00001	8b ec		 mov	 ebp, esp
  00003	81 ec c0 00 00
	00		 sub	 esp, 192		; 000000c0H
  00009	53		 push	 ebx
  0000a	56		 push	 esi
  0000b	57		 push	 edi
  0000c	8b fd		 mov	 edi, ebp
  0000e	33 c9		 xor	 ecx, ecx
  00010	b8 cc cc cc cc	 mov	 eax, -858993460		; ccccccccH
  00015	f3 ab		 rep stosd
  00017	b9 00 00 00 00	 mov	 ecx, OFFSET __0D019051_xstring
  0001c	e8 00 00 00 00	 call	 @__CheckForDebuggerJustMyCode@4

; 397  :         // find length of null-terminated string
; 398  : #if _HAS_CXX17
; 399  : #ifdef __cpp_char8_t
; 400  :         if constexpr (is_same_v<_Elem, char8_t>) {
; 401  : #if _HAS_U8_INTRINSICS
; 402  :             return __builtin_u8strlen(_First);
; 403  : #else // ^^^ use u8 intrinsics / no u8 intrinsics vvv
; 404  :             return _Primary_char_traits::length(_First);
; 405  : #endif // _HAS_U8_INTRINSICS
; 406  :         } else
; 407  : #endif // __cpp_char8_t
; 408  :         {
; 409  :             return __builtin_strlen(_First);
; 410  :         }
; 411  : #else // _HAS_CXX17
; 412  :         return _CSTD strlen(reinterpret_cast<const char*>(_First));

  00021	8b 45 08	 mov	 eax, DWORD PTR __First$[ebp]
  00024	50		 push	 eax
  00025	e8 00 00 00 00	 call	 _strlen
  0002a	83 c4 04	 add	 esp, 4

; 413  : #endif // _HAS_CXX17
; 414  :     }

  0002d	5f		 pop	 edi
  0002e	5e		 pop	 esi
  0002f	5b		 pop	 ebx
  00030	81 c4 c0 00 00
	00		 add	 esp, 192		; 000000c0H
  00036	3b ec		 cmp	 ebp, esp
  00038	e8 00 00 00 00	 call	 __RTC_CheckEsp
  0003d	8b e5		 mov	 esp, ebp
  0003f	5d		 pop	 ebp
  00040	c3		 ret	 0
?length@?$_Narrow_char_traits@DH@std@@SAIQBD@Z ENDP	; std::_Narrow_char_traits<char,int>::length
_TEXT	ENDS
; Function compile flags: /Odtp /RTCsu /ZI
; File C:\Program Files (x86)\Microsoft Visual Studio\2019\Community\VC\Tools\MSVC\14.29.30133\include\xstring
;	COMDAT ?move@?$_Char_traits@DH@std@@SAPADQADQBDI@Z
_TEXT	SEGMENT
__First1$ = 8						; size = 4
__First2$ = 12						; size = 4
__Count$ = 16						; size = 4
?move@?$_Char_traits@DH@std@@SAPADQADQBDI@Z PROC	; std::_Char_traits<char,int>::move, COMDAT

; 80   :         _In_reads_(_Count) const _Elem* const _First2, const size_t _Count) noexcept /* strengthened */ {

  00000	55		 push	 ebp
  00001	8b ec		 mov	 ebp, esp
  00003	81 ec c0 00 00
	00		 sub	 esp, 192		; 000000c0H
  00009	53		 push	 ebx
  0000a	56		 push	 esi
  0000b	57		 push	 edi
  0000c	8b fd		 mov	 edi, ebp
  0000e	33 c9		 xor	 ecx, ecx
  00010	b8 cc cc cc cc	 mov	 eax, -858993460		; ccccccccH
  00015	f3 ab		 rep stosd
  00017	b9 00 00 00 00	 mov	 ecx, OFFSET __0D019051_xstring
  0001c	e8 00 00 00 00	 call	 @__CheckForDebuggerJustMyCode@4

; 81   :         // copy [_First2, _First2 + _Count) to [_First1, ...), allowing overlap
; 82   : #if _HAS_MEMCPY_MEMMOVE_INTRINSICS
; 83   :         __builtin_memmove(_First1, _First2, _Count * sizeof(_Elem));
; 84   : #else // ^^^ _HAS_MEMCPY_MEMMOVE_INTRINSICS ^^^ / vvv !_HAS_MEMCPY_MEMMOVE_INTRINSICS vvv
; 85   : #ifdef __cpp_lib_is_constant_evaluated
; 86   :         if (_STD is_constant_evaluated()) {
; 87   :             // dest: [_First1, _First1 + _Count)
; 88   :             // src: [_First2, _First2 + _Count)
; 89   :             // We need to handle overlapping ranges.
; 90   :             // If _First1 is in the src range, we need a backward loop.
; 91   :             // Otherwise, the forward loop works (even if the back of dest overlaps the front of src).
; 92   : 
; 93   :             if (_First1 == _First2) {
; 94   :                 return _First1; // Self-assignment; either loop would work, but returning immediately is faster.
; 95   :             }
; 96   : 
; 97   :             // Usually, we would compare pointers with less-than, even though they could belong to different arrays.
; 98   :             // However, we're not allowed to do that during constant evaluation, so we need a linear scan for equality.
; 99   :             bool _Loop_forward = true;
; 100  : 
; 101  :             for (const _Elem* _Src = _First2; _Src != _First2 + _Count; ++_Src) {
; 102  :                 if (_First1 == _Src) {
; 103  :                     _Loop_forward = false;
; 104  :                     break;
; 105  :                 }
; 106  :             }
; 107  : 
; 108  :             if (_Loop_forward) {
; 109  :                 for (size_t _Idx = 0; _Idx < _Count; ++_Idx) {
; 110  :                     _First1[_Idx] = _First2[_Idx];
; 111  :                 }
; 112  :             } else {
; 113  :                 for (size_t _Idx = 0; _Idx < _Count; ++_Idx) {
; 114  :                     _First1[_Count - 1 - _Idx] = _First2[_Count - 1 - _Idx];
; 115  :                 }
; 116  :             }
; 117  : 
; 118  :             return _First1;
; 119  :         }
; 120  : #endif // __cpp_lib_is_constant_evaluated
; 121  : 
; 122  :         _CSTD memmove(_First1, _First2, _Count * sizeof(_Elem));

  00021	8b 45 10	 mov	 eax, DWORD PTR __Count$[ebp]
  00024	50		 push	 eax
  00025	8b 4d 0c	 mov	 ecx, DWORD PTR __First2$[ebp]
  00028	51		 push	 ecx
  00029	8b 55 08	 mov	 edx, DWORD PTR __First1$[ebp]
  0002c	52		 push	 edx
  0002d	e8 00 00 00 00	 call	 _memmove
  00032	83 c4 0c	 add	 esp, 12			; 0000000cH

; 123  : #endif // ^^^ !_HAS_MEMCPY_MEMMOVE_INTRINSICS ^^^
; 124  : 
; 125  :         return _First1;

  00035	8b 45 08	 mov	 eax, DWORD PTR __First1$[ebp]

; 126  :     }

  00038	5f		 pop	 edi
  00039	5e		 pop	 esi
  0003a	5b		 pop	 ebx
  0003b	81 c4 c0 00 00
	00		 add	 esp, 192		; 000000c0H
  00041	3b ec		 cmp	 ebp, esp
  00043	e8 00 00 00 00	 call	 __RTC_CheckEsp
  00048	8b e5		 mov	 esp, ebp
  0004a	5d		 pop	 ebp
  0004b	c3		 ret	 0
?move@?$_Char_traits@DH@std@@SAPADQADQBDI@Z ENDP	; std::_Char_traits<char,int>::move
_TEXT	ENDS
; Function compile flags: /Odtp /RTCsu /ZI
; File C:\Program Files (x86)\Microsoft Visual Studio\2019\Community\VC\Tools\MSVC\14.29.30133\include\xstring
;	COMDAT ?copy@?$_Char_traits@DH@std@@SAPADQADQBDI@Z
_TEXT	SEGMENT
__First1$ = 8						; size = 4
__First2$ = 12						; size = 4
__Count$ = 16						; size = 4
?copy@?$_Char_traits@DH@std@@SAPADQADQBDI@Z PROC	; std::_Char_traits<char,int>::copy, COMDAT

; 49   :         _In_reads_(_Count) const _Elem* const _First2, const size_t _Count) noexcept /* strengthened */ {

  00000	55		 push	 ebp
  00001	8b ec		 mov	 ebp, esp
  00003	81 ec c0 00 00
	00		 sub	 esp, 192		; 000000c0H
  00009	53		 push	 ebx
  0000a	56		 push	 esi
  0000b	57		 push	 edi
  0000c	8b fd		 mov	 edi, ebp
  0000e	33 c9		 xor	 ecx, ecx
  00010	b8 cc cc cc cc	 mov	 eax, -858993460		; ccccccccH
  00015	f3 ab		 rep stosd
  00017	b9 00 00 00 00	 mov	 ecx, OFFSET __0D019051_xstring
  0001c	e8 00 00 00 00	 call	 @__CheckForDebuggerJustMyCode@4

; 50   :         // copy [_First2, _First2 + _Count) to [_First1, ...)
; 51   : #if _HAS_MEMCPY_MEMMOVE_INTRINSICS
; 52   :         __builtin_memcpy(_First1, _First2, _Count * sizeof(_Elem));
; 53   : #else // ^^^ _HAS_MEMCPY_MEMMOVE_INTRINSICS ^^^ / vvv !_HAS_MEMCPY_MEMMOVE_INTRINSICS vvv
; 54   : #ifdef __cpp_lib_is_constant_evaluated
; 55   :         if (_STD is_constant_evaluated()) {
; 56   :             // pre: [_First1, _First1 + _Count) and [_First2, _First2 + _Count) do not overlap; see LWG-3085
; 57   :             for (size_t _Idx = 0; _Idx < _Count; ++_Idx) {
; 58   :                 _First1[_Idx] = _First2[_Idx];
; 59   :             }
; 60   : 
; 61   :             return _First1;
; 62   :         }
; 63   : #endif // __cpp_lib_is_constant_evaluated
; 64   : 
; 65   :         _CSTD memcpy(_First1, _First2, _Count * sizeof(_Elem));

  00021	8b 45 10	 mov	 eax, DWORD PTR __Count$[ebp]
  00024	50		 push	 eax
  00025	8b 4d 0c	 mov	 ecx, DWORD PTR __First2$[ebp]
  00028	51		 push	 ecx
  00029	8b 55 08	 mov	 edx, DWORD PTR __First1$[ebp]
  0002c	52		 push	 edx
  0002d	e8 00 00 00 00	 call	 _memcpy
  00032	83 c4 0c	 add	 esp, 12			; 0000000cH

; 66   : #endif // ^^^ !_HAS_MEMCPY_MEMMOVE_INTRINSICS ^^^
; 67   : 
; 68   :         return _First1;

  00035	8b 45 08	 mov	 eax, DWORD PTR __First1$[ebp]

; 69   :     }

  00038	5f		 pop	 edi
  00039	5e		 pop	 esi
  0003a	5b		 pop	 ebx
  0003b	81 c4 c0 00 00
	00		 add	 esp, 192		; 000000c0H
  00041	3b ec		 cmp	 ebp, esp
  00043	e8 00 00 00 00	 call	 __RTC_CheckEsp
  00048	8b e5		 mov	 esp, ebp
  0004a	5d		 pop	 ebp
  0004b	c3		 ret	 0
?copy@?$_Char_traits@DH@std@@SAPADQADQBDI@Z ENDP	; std::_Char_traits<char,int>::copy
_TEXT	ENDS
; Function compile flags: /Odtp /RTCsu /ZI
; File C:\Program Files (x86)\Microsoft Visual Studio\2019\Community\VC\Tools\MSVC\14.29.30133\include\xutility
;	COMDAT ??$_Construct_in_place@U_Container_proxy@std@@PAU_Container_base12@2@@std@@YAXAAU_Container_proxy@0@$$QAPAU_Container_base12@0@@Z
_TEXT	SEGMENT
$T1 = -200						; size = 4
__Obj$ = 8						; size = 4
_<_Args_0>$ = 12					; size = 4
??$_Construct_in_place@U_Container_proxy@std@@PAU_Container_base12@2@@std@@YAXAAU_Container_proxy@0@$$QAPAU_Container_base12@0@@Z PROC ; std::_Construct_in_place<std::_Container_proxy,std::_Container_base12 *>, COMDAT

; 151  :     is_nothrow_constructible_v<_Ty, _Types...>) {

  00000	55		 push	 ebp
  00001	8b ec		 mov	 ebp, esp
  00003	81 ec cc 00 00
	00		 sub	 esp, 204		; 000000ccH
  00009	53		 push	 ebx
  0000a	56		 push	 esi
  0000b	57		 push	 edi
  0000c	8d 7d f4	 lea	 edi, DWORD PTR [ebp-12]
  0000f	b9 03 00 00 00	 mov	 ecx, 3
  00014	b8 cc cc cc cc	 mov	 eax, -858993460		; ccccccccH
  00019	f3 ab		 rep stosd
  0001b	b9 00 00 00 00	 mov	 ecx, OFFSET __12269DE6_xutility
  00020	e8 00 00 00 00	 call	 @__CheckForDebuggerJustMyCode@4
  00025	8b 45 08	 mov	 eax, DWORD PTR __Obj$[ebp]
  00028	50		 push	 eax
  00029	e8 00 00 00 00	 call	 ??$addressof@U_Container_proxy@std@@@std@@YAPAU_Container_proxy@0@AAU10@@Z ; std::addressof<std::_Container_proxy>
  0002e	83 c4 04	 add	 esp, 4
  00031	50		 push	 eax
  00032	e8 00 00 00 00	 call	 ??$_Voidify_iter@PAU_Container_proxy@std@@@std@@YAPAXPAU_Container_proxy@0@@Z ; std::_Voidify_iter<std::_Container_proxy *>
  00037	83 c4 04	 add	 esp, 4
  0003a	50		 push	 eax
  0003b	6a 08		 push	 8
  0003d	e8 00 00 00 00	 call	 ??2@YAPAXIPAX@Z		; operator new
  00042	83 c4 08	 add	 esp, 8
  00045	89 85 38 ff ff
	ff		 mov	 DWORD PTR $T1[ebp], eax
  0004b	8b 4d 0c	 mov	 ecx, DWORD PTR _<_Args_0>$[ebp]
  0004e	51		 push	 ecx
  0004f	e8 00 00 00 00	 call	 ??$forward@PAU_Container_base12@std@@@std@@YA$$QAPAU_Container_base12@0@AAPAU10@@Z ; std::forward<std::_Container_base12 *>
  00054	83 c4 04	 add	 esp, 4
  00057	8b 10		 mov	 edx, DWORD PTR [eax]
  00059	52		 push	 edx
  0005a	8b 8d 38 ff ff
	ff		 mov	 ecx, DWORD PTR $T1[ebp]
  00060	e8 00 00 00 00	 call	 ??0_Container_proxy@std@@QAE@PAU_Container_base12@1@@Z ; std::_Container_proxy::_Container_proxy

; 152  : #ifdef __cpp_lib_constexpr_dynamic_alloc
; 153  :     if (_STD is_constant_evaluated()) {
; 154  :         _STD construct_at(_STD addressof(_Obj), _STD forward<_Types>(_Args)...);
; 155  :     } else
; 156  : #endif // __cpp_lib_constexpr_dynamic_alloc
; 157  :     {
; 158  :         ::new (_Voidify_iter(_STD addressof(_Obj))) _Ty(_STD forward<_Types>(_Args)...);
; 159  :     }
; 160  : }

  00065	5f		 pop	 edi
  00066	5e		 pop	 esi
  00067	5b		 pop	 ebx
  00068	81 c4 cc 00 00
	00		 add	 esp, 204		; 000000ccH
  0006e	3b ec		 cmp	 ebp, esp
  00070	e8 00 00 00 00	 call	 __RTC_CheckEsp
  00075	8b e5		 mov	 esp, ebp
  00077	5d		 pop	 ebp
  00078	c3		 ret	 0
??$_Construct_in_place@U_Container_proxy@std@@PAU_Container_base12@2@@std@@YAXAAU_Container_proxy@0@$$QAPAU_Container_base12@0@@Z ENDP ; std::_Construct_in_place<std::_Container_proxy,std::_Container_base12 *>
_TEXT	ENDS
; Function compile flags: /Odtp /RTCsu /ZI
; File C:\Program Files (x86)\Microsoft Visual Studio\2019\Community\VC\Tools\MSVC\14.29.30133\include\xmemory
;	COMDAT ?_Orphan_all_locked@_Container_base12@std@@AAEXXZ
_TEXT	SEGMENT
__Lock$ = -24						; size = 4
_this$ = -12						; size = 4
__$ArrayPad$ = -4					; size = 4
?_Orphan_all_locked@_Container_base12@std@@AAEXXZ PROC	; std::_Container_base12::_Orphan_all_locked, COMDAT
; _this$ = ecx

; 1095 :     void _Orphan_all_locked() noexcept {

  00000	55		 push	 ebp
  00001	8b ec		 mov	 ebp, esp
  00003	81 ec dc 00 00
	00		 sub	 esp, 220		; 000000dcH
  00009	53		 push	 ebx
  0000a	56		 push	 esi
  0000b	57		 push	 edi
  0000c	51		 push	 ecx
  0000d	8d 7d e4	 lea	 edi, DWORD PTR [ebp-28]
  00010	b9 07 00 00 00	 mov	 ecx, 7
  00015	b8 cc cc cc cc	 mov	 eax, -858993460		; ccccccccH
  0001a	f3 ab		 rep stosd
  0001c	59		 pop	 ecx
  0001d	a1 00 00 00 00	 mov	 eax, DWORD PTR ___security_cookie
  00022	33 c5		 xor	 eax, ebp
  00024	89 45 fc	 mov	 DWORD PTR __$ArrayPad$[ebp], eax
  00027	89 4d f4	 mov	 DWORD PTR _this$[ebp], ecx
  0002a	b9 00 00 00 00	 mov	 ecx, OFFSET __79D216CD_xmemory
  0002f	e8 00 00 00 00	 call	 @__CheckForDebuggerJustMyCode@4

; 1096 :         _Lockit _Lock(_LOCK_DEBUG);

  00034	8b f4		 mov	 esi, esp
  00036	6a 03		 push	 3
  00038	8d 4d e8	 lea	 ecx, DWORD PTR __Lock$[ebp]
  0003b	ff 15 00 00 00
	00		 call	 DWORD PTR __imp_??0_Lockit@std@@QAE@H@Z
  00041	3b f4		 cmp	 esi, esp
  00043	e8 00 00 00 00	 call	 __RTC_CheckEsp

; 1097 :         _Orphan_all_unlocked();

  00048	8b 4d f4	 mov	 ecx, DWORD PTR _this$[ebp]
  0004b	e8 00 00 00 00	 call	 ?_Orphan_all_unlocked@_Container_base12@std@@AAEXXZ ; std::_Container_base12::_Orphan_all_unlocked

; 1098 :     }

  00050	8b f4		 mov	 esi, esp
  00052	8d 4d e8	 lea	 ecx, DWORD PTR __Lock$[ebp]
  00055	ff 15 00 00 00
	00		 call	 DWORD PTR __imp_??1_Lockit@std@@QAE@XZ
  0005b	3b f4		 cmp	 esi, esp
  0005d	e8 00 00 00 00	 call	 __RTC_CheckEsp
  00062	52		 push	 edx
  00063	8b cd		 mov	 ecx, ebp
  00065	50		 push	 eax
  00066	8d 15 00 00 00
	00		 lea	 edx, DWORD PTR $LN5@Orphan_all
  0006c	e8 00 00 00 00	 call	 @_RTC_CheckStackVars@8
  00071	58		 pop	 eax
  00072	5a		 pop	 edx
  00073	5f		 pop	 edi
  00074	5e		 pop	 esi
  00075	5b		 pop	 ebx
  00076	8b 4d fc	 mov	 ecx, DWORD PTR __$ArrayPad$[ebp]
  00079	33 cd		 xor	 ecx, ebp
  0007b	e8 00 00 00 00	 call	 @__security_check_cookie@4
  00080	81 c4 dc 00 00
	00		 add	 esp, 220		; 000000dcH
  00086	3b ec		 cmp	 ebp, esp
  00088	e8 00 00 00 00	 call	 __RTC_CheckEsp
  0008d	8b e5		 mov	 esp, ebp
  0008f	5d		 pop	 ebp
  00090	c3		 ret	 0
  00091	0f 1f 00	 npad	 3
$LN5@Orphan_all:
  00094	01 00 00 00	 DD	 1
  00098	00 00 00 00	 DD	 $LN4@Orphan_all
$LN4@Orphan_all:
  0009c	e8 ff ff ff	 DD	 -24			; ffffffe8H
  000a0	04 00 00 00	 DD	 4
  000a4	00 00 00 00	 DD	 $LN3@Orphan_all
$LN3@Orphan_all:
  000a8	5f		 DB	 95			; 0000005fH
  000a9	4c		 DB	 76			; 0000004cH
  000aa	6f		 DB	 111			; 0000006fH
  000ab	63		 DB	 99			; 00000063H
  000ac	6b		 DB	 107			; 0000006bH
  000ad	00		 DB	 0
?_Orphan_all_locked@_Container_base12@std@@AAEXXZ ENDP	; std::_Container_base12::_Orphan_all_locked
_TEXT	ENDS
; Function compile flags: /Odtp /RTCsu /ZI
; File C:\Program Files (x86)\Microsoft Visual Studio\2019\Community\VC\Tools\MSVC\14.29.30133\include\xmemory
;	COMDAT ?_Orphan_all_unlocked@_Container_base12@std@@AAEXXZ
_TEXT	SEGMENT
__Pnext$1 = -20						; size = 4
_this$ = -8						; size = 4
?_Orphan_all_unlocked@_Container_base12@std@@AAEXXZ PROC ; std::_Container_base12::_Orphan_all_unlocked, COMDAT
; _this$ = ecx

; 1220 : _CONSTEXPR20_CONTAINER void _Container_base12::_Orphan_all_unlocked() noexcept {

  00000	55		 push	 ebp
  00001	8b ec		 mov	 ebp, esp
  00003	81 ec d8 00 00
	00		 sub	 esp, 216		; 000000d8H
  00009	53		 push	 ebx
  0000a	56		 push	 esi
  0000b	57		 push	 edi
  0000c	51		 push	 ecx
  0000d	8d 7d e8	 lea	 edi, DWORD PTR [ebp-24]
  00010	b9 06 00 00 00	 mov	 ecx, 6
  00015	b8 cc cc cc cc	 mov	 eax, -858993460		; ccccccccH
  0001a	f3 ab		 rep stosd
  0001c	59		 pop	 ecx
  0001d	89 4d f8	 mov	 DWORD PTR _this$[ebp], ecx
  00020	b9 00 00 00 00	 mov	 ecx, OFFSET __79D216CD_xmemory
  00025	e8 00 00 00 00	 call	 @__CheckForDebuggerJustMyCode@4

; 1221 :     for (auto& _Pnext = _Myproxy->_Myfirstiter; _Pnext; _Pnext = _Pnext->_Mynextiter) { // TRANSITION, VSO-1269037

  0002a	8b 45 f8	 mov	 eax, DWORD PTR _this$[ebp]
  0002d	8b 08		 mov	 ecx, DWORD PTR [eax]
  0002f	83 c1 04	 add	 ecx, 4
  00032	89 4d ec	 mov	 DWORD PTR __Pnext$1[ebp], ecx
  00035	eb 0d		 jmp	 SHORT $LN4@Orphan_all
$LN2@Orphan_all:
  00037	8b 45 ec	 mov	 eax, DWORD PTR __Pnext$1[ebp]
  0003a	8b 08		 mov	 ecx, DWORD PTR [eax]
  0003c	8b 55 ec	 mov	 edx, DWORD PTR __Pnext$1[ebp]
  0003f	8b 41 04	 mov	 eax, DWORD PTR [ecx+4]
  00042	89 02		 mov	 DWORD PTR [edx], eax
$LN4@Orphan_all:
  00044	8b 45 ec	 mov	 eax, DWORD PTR __Pnext$1[ebp]
  00047	83 38 00	 cmp	 DWORD PTR [eax], 0
  0004a	74 0d		 je	 SHORT $LN3@Orphan_all

; 1222 :         _Pnext->_Myproxy = nullptr;

  0004c	8b 45 ec	 mov	 eax, DWORD PTR __Pnext$1[ebp]
  0004f	8b 08		 mov	 ecx, DWORD PTR [eax]
  00051	c7 01 00 00 00
	00		 mov	 DWORD PTR [ecx], 0

; 1223 :     }

  00057	eb de		 jmp	 SHORT $LN2@Orphan_all
$LN3@Orphan_all:

; 1224 :     _Myproxy->_Myfirstiter = nullptr;

  00059	8b 45 f8	 mov	 eax, DWORD PTR _this$[ebp]
  0005c	8b 08		 mov	 ecx, DWORD PTR [eax]
  0005e	c7 41 04 00 00
	00 00		 mov	 DWORD PTR [ecx+4], 0

; 1225 : }

  00065	5f		 pop	 edi
  00066	5e		 pop	 esi
  00067	5b		 pop	 ebx
  00068	81 c4 d8 00 00
	00		 add	 esp, 216		; 000000d8H
  0006e	3b ec		 cmp	 ebp, esp
  00070	e8 00 00 00 00	 call	 __RTC_CheckEsp
  00075	8b e5		 mov	 esp, ebp
  00077	5d		 pop	 ebp
  00078	c3		 ret	 0
?_Orphan_all_unlocked@_Container_base12@std@@AAEXXZ ENDP ; std::_Container_base12::_Orphan_all_unlocked
_TEXT	ENDS
; Function compile flags: /Odtp /RTCsu /ZI
; File C:\Program Files (x86)\Microsoft Visual Studio\2019\Community\VC\Tools\MSVC\14.29.30133\include\xmemory
;	COMDAT ?_Orphan_all@_Container_base12@std@@QAEXXZ
_TEXT	SEGMENT
_this$ = -8						; size = 4
?_Orphan_all@_Container_base12@std@@QAEXXZ PROC		; std::_Container_base12::_Orphan_all, COMDAT
; _this$ = ecx

; 1227 : _CONSTEXPR20_CONTAINER void _Container_base12::_Orphan_all() noexcept {

  00000	55		 push	 ebp
  00001	8b ec		 mov	 ebp, esp
  00003	81 ec cc 00 00
	00		 sub	 esp, 204		; 000000ccH
  00009	53		 push	 ebx
  0000a	56		 push	 esi
  0000b	57		 push	 edi
  0000c	51		 push	 ecx
  0000d	8d 7d f4	 lea	 edi, DWORD PTR [ebp-12]
  00010	b9 03 00 00 00	 mov	 ecx, 3
  00015	b8 cc cc cc cc	 mov	 eax, -858993460		; ccccccccH
  0001a	f3 ab		 rep stosd
  0001c	59		 pop	 ecx
  0001d	89 4d f8	 mov	 DWORD PTR _this$[ebp], ecx
  00020	b9 00 00 00 00	 mov	 ecx, OFFSET __79D216CD_xmemory
  00025	e8 00 00 00 00	 call	 @__CheckForDebuggerJustMyCode@4

; 1228 : #if _ITERATOR_DEBUG_LEVEL == 2
; 1229 :     if (_Myproxy) { // proxy allocated, drain it

  0002a	8b 45 f8	 mov	 eax, DWORD PTR _this$[ebp]
  0002d	83 38 00	 cmp	 DWORD PTR [eax], 0
  00030	74 08		 je	 SHORT $LN3@Orphan_all

; 1230 : #ifdef __cpp_lib_constexpr_dynamic_alloc
; 1231 :         if (_STD is_constant_evaluated()) {
; 1232 :             _Orphan_all_unlocked();
; 1233 :         } else
; 1234 : #endif // __cpp_lib_constexpr_dynamic_alloc
; 1235 :         {
; 1236 :             _Orphan_all_locked();

  00032	8b 4d f8	 mov	 ecx, DWORD PTR _this$[ebp]
  00035	e8 00 00 00 00	 call	 ?_Orphan_all_locked@_Container_base12@std@@AAEXXZ ; std::_Container_base12::_Orphan_all_locked
$LN3@Orphan_all:

; 1237 :         }
; 1238 :     }
; 1239 : #endif // _ITERATOR_DEBUG_LEVEL == 2
; 1240 : }

  0003a	5f		 pop	 edi
  0003b	5e		 pop	 esi
  0003c	5b		 pop	 ebx
  0003d	81 c4 cc 00 00
	00		 add	 esp, 204		; 000000ccH
  00043	3b ec		 cmp	 ebp, esp
  00045	e8 00 00 00 00	 call	 __RTC_CheckEsp
  0004a	8b e5		 mov	 esp, ebp
  0004c	5d		 pop	 ebp
  0004d	c3		 ret	 0
?_Orphan_all@_Container_base12@std@@QAEXXZ ENDP		; std::_Container_base12::_Orphan_all
_TEXT	ENDS
; Function compile flags: /Odtp /RTCsu /ZI
; File C:\Program Files (x86)\Microsoft Visual Studio\2019\Community\VC\Tools\MSVC\14.29.30133\include\xmemory
;	COMDAT ??0_Container_base12@std@@QAE@XZ
_TEXT	SEGMENT
_this$ = -8						; size = 4
??0_Container_base12@std@@QAE@XZ PROC			; std::_Container_base12::_Container_base12, COMDAT
; _this$ = ecx

; 1064 :     _CONSTEXPR20_CONTAINER _Container_base12() noexcept = default;

  00000	55		 push	 ebp
  00001	8b ec		 mov	 ebp, esp
  00003	81 ec cc 00 00
	00		 sub	 esp, 204		; 000000ccH
  00009	53		 push	 ebx
  0000a	56		 push	 esi
  0000b	57		 push	 edi
  0000c	51		 push	 ecx
  0000d	8d 7d f4	 lea	 edi, DWORD PTR [ebp-12]
  00010	b9 03 00 00 00	 mov	 ecx, 3
  00015	b8 cc cc cc cc	 mov	 eax, -858993460		; ccccccccH
  0001a	f3 ab		 rep stosd
  0001c	59		 pop	 ecx
  0001d	89 4d f8	 mov	 DWORD PTR _this$[ebp], ecx
  00020	b9 00 00 00 00	 mov	 ecx, OFFSET __79D216CD_xmemory
  00025	e8 00 00 00 00	 call	 @__CheckForDebuggerJustMyCode@4

; 1065 : 
; 1066 :     _Container_base12(const _Container_base12&) = delete;
; 1067 :     _Container_base12& operator=(const _Container_base12&) = delete;
; 1068 : 
; 1069 :     _CONSTEXPR20_CONTAINER void _Orphan_all() noexcept;
; 1070 :     _CONSTEXPR20_CONTAINER void _Swap_proxy_and_iterators(_Container_base12&) noexcept;
; 1071 : 
; 1072 :     template <class _Alloc>
; 1073 :     _CONSTEXPR20_CONTAINER void _Alloc_proxy(_Alloc&& _Al) {
; 1074 :         _Container_proxy* const _New_proxy = _Unfancy(_Al.allocate(1));
; 1075 :         _Construct_in_place(*_New_proxy, this);
; 1076 :         _Myproxy            = _New_proxy;
; 1077 :         _New_proxy->_Mycont = this;
; 1078 :     }
; 1079 : 
; 1080 :     template <class _Alloc>
; 1081 :     _CONSTEXPR20_CONTAINER void _Reload_proxy(_Alloc&& _Old_alloc, _Alloc&& _New_alloc) {
; 1082 :         // pre: no iterators refer to the existing proxy
; 1083 :         _Container_proxy* const _New_proxy = _Unfancy(_New_alloc.allocate(1));
; 1084 :         _Construct_in_place(*_New_proxy, this);
; 1085 :         _New_proxy->_Mycont = this;
; 1086 :         _Delete_plain_internal(_Old_alloc, _STD exchange(_Myproxy, _New_proxy));
; 1087 :     }
; 1088 : 
; 1089 :     _Container_proxy* _Myproxy = nullptr;

  0002a	8b 45 f8	 mov	 eax, DWORD PTR _this$[ebp]
  0002d	c7 00 00 00 00
	00		 mov	 DWORD PTR [eax], 0

; 1064 :     _CONSTEXPR20_CONTAINER _Container_base12() noexcept = default;

  00033	8b 45 f8	 mov	 eax, DWORD PTR _this$[ebp]
  00036	5f		 pop	 edi
  00037	5e		 pop	 esi
  00038	5b		 pop	 ebx
  00039	81 c4 cc 00 00
	00		 add	 esp, 204		; 000000ccH
  0003f	3b ec		 cmp	 ebp, esp
  00041	e8 00 00 00 00	 call	 __RTC_CheckEsp
  00046	8b e5		 mov	 esp, ebp
  00048	5d		 pop	 ebp
  00049	c3		 ret	 0
??0_Container_base12@std@@QAE@XZ ENDP			; std::_Container_base12::_Container_base12
_TEXT	ENDS
; Function compile flags: /Odtp /RTCsu /ZI
; File C:\Program Files (x86)\Microsoft Visual Studio\2019\Community\VC\Tools\MSVC\14.29.30133\include\xmemory
;	COMDAT ??0_Container_proxy@std@@QAE@PAU_Container_base12@1@@Z
_TEXT	SEGMENT
_this$ = -8						; size = 4
__Mycont_$ = 8						; size = 4
??0_Container_proxy@std@@QAE@PAU_Container_base12@1@@Z PROC ; std::_Container_proxy::_Container_proxy, COMDAT
; _this$ = ecx

; 1056 :     _CONSTEXPR20_CONTAINER _Container_proxy(_Container_base12* _Mycont_) noexcept : _Mycont(_Mycont_) {}

  00000	55		 push	 ebp
  00001	8b ec		 mov	 ebp, esp
  00003	81 ec cc 00 00
	00		 sub	 esp, 204		; 000000ccH
  00009	53		 push	 ebx
  0000a	56		 push	 esi
  0000b	57		 push	 edi
  0000c	51		 push	 ecx
  0000d	8d 7d f4	 lea	 edi, DWORD PTR [ebp-12]
  00010	b9 03 00 00 00	 mov	 ecx, 3
  00015	b8 cc cc cc cc	 mov	 eax, -858993460		; ccccccccH
  0001a	f3 ab		 rep stosd
  0001c	59		 pop	 ecx
  0001d	89 4d f8	 mov	 DWORD PTR _this$[ebp], ecx
  00020	b9 00 00 00 00	 mov	 ecx, OFFSET __79D216CD_xmemory
  00025	e8 00 00 00 00	 call	 @__CheckForDebuggerJustMyCode@4
  0002a	8b 45 f8	 mov	 eax, DWORD PTR _this$[ebp]
  0002d	8b 4d 08	 mov	 ecx, DWORD PTR __Mycont_$[ebp]
  00030	89 08		 mov	 DWORD PTR [eax], ecx

; 1057 : 
; 1058 :     const _Container_base12* _Mycont       = nullptr;
; 1059 :     mutable _Iterator_base12* _Myfirstiter = nullptr;

  00032	8b 45 f8	 mov	 eax, DWORD PTR _this$[ebp]
  00035	c7 40 04 00 00
	00 00		 mov	 DWORD PTR [eax+4], 0

; 1056 :     _CONSTEXPR20_CONTAINER _Container_proxy(_Container_base12* _Mycont_) noexcept : _Mycont(_Mycont_) {}

  0003c	8b 45 f8	 mov	 eax, DWORD PTR _this$[ebp]
  0003f	5f		 pop	 edi
  00040	5e		 pop	 esi
  00041	5b		 pop	 ebx
  00042	81 c4 cc 00 00
	00		 add	 esp, 204		; 000000ccH
  00048	3b ec		 cmp	 ebp, esp
  0004a	e8 00 00 00 00	 call	 __RTC_CheckEsp
  0004f	8b e5		 mov	 esp, ebp
  00051	5d		 pop	 ebp
  00052	c2 04 00	 ret	 4
??0_Container_proxy@std@@QAE@PAU_Container_base12@1@@Z ENDP ; std::_Container_proxy::_Container_proxy
_TEXT	ENDS
; Function compile flags: /Odtp /RTCsu /ZI
; File C:\Program Files (x86)\Microsoft Visual Studio\2019\Community\VC\Tools\MSVC\14.29.30133\include\xmemory
;	COMDAT ??$_Convert_size@I@std@@YAII@Z
_TEXT	SEGMENT
__Len$ = 8						; size = 4
??$_Convert_size@I@std@@YAII@Z PROC			; std::_Convert_size<unsigned int>, COMDAT

; 978  : _NODISCARD constexpr size_t _Convert_size<size_t>(const size_t _Len) noexcept {

  00000	55		 push	 ebp
  00001	8b ec		 mov	 ebp, esp
  00003	81 ec c0 00 00
	00		 sub	 esp, 192		; 000000c0H
  00009	53		 push	 ebx
  0000a	56		 push	 esi
  0000b	57		 push	 edi
  0000c	8b fd		 mov	 edi, ebp
  0000e	33 c9		 xor	 ecx, ecx
  00010	b8 cc cc cc cc	 mov	 eax, -858993460		; ccccccccH
  00015	f3 ab		 rep stosd
  00017	b9 00 00 00 00	 mov	 ecx, OFFSET __79D216CD_xmemory
  0001c	e8 00 00 00 00	 call	 @__CheckForDebuggerJustMyCode@4

; 979  :     // convert size_t to size_t, unchanged
; 980  :     return _Len;

  00021	8b 45 08	 mov	 eax, DWORD PTR __Len$[ebp]

; 981  : }

  00024	5f		 pop	 edi
  00025	5e		 pop	 esi
  00026	5b		 pop	 ebx
  00027	81 c4 c0 00 00
	00		 add	 esp, 192		; 000000c0H
  0002d	3b ec		 cmp	 ebp, esp
  0002f	e8 00 00 00 00	 call	 __RTC_CheckEsp
  00034	8b e5		 mov	 esp, ebp
  00036	5d		 pop	 ebp
  00037	c3		 ret	 0
??$_Convert_size@I@std@@YAII@Z ENDP			; std::_Convert_size<unsigned int>
_TEXT	ENDS
; Function compile flags: /Odtp /RTCsu /ZI
; File C:\Program Files (x86)\Microsoft Visual Studio\2019\Community\VC\Tools\MSVC\14.29.30133\include\xmemory
;	COMDAT ?_Adjust_manually_vector_aligned@std@@YAXAAPAXAAI@Z
_TEXT	SEGMENT
__Back_shift$ = -44					; size = 4
__Min_back_shift$ = -32					; size = 4
__Ptr_container$ = -20					; size = 4
__Ptr_user$ = -8					; size = 4
__Ptr$ = 8						; size = 4
__Bytes$ = 12						; size = 4
?_Adjust_manually_vector_aligned@std@@YAXAAPAXAAI@Z PROC ; std::_Adjust_manually_vector_aligned, COMDAT

; 153  : inline void _Adjust_manually_vector_aligned(void*& _Ptr, size_t& _Bytes) {

  00000	55		 push	 ebp
  00001	8b ec		 mov	 ebp, esp
  00003	81 ec f0 00 00
	00		 sub	 esp, 240		; 000000f0H
  00009	53		 push	 ebx
  0000a	56		 push	 esi
  0000b	57		 push	 edi
  0000c	8d 7d d0	 lea	 edi, DWORD PTR [ebp-48]
  0000f	b9 0c 00 00 00	 mov	 ecx, 12			; 0000000cH
  00014	b8 cc cc cc cc	 mov	 eax, -858993460		; ccccccccH
  00019	f3 ab		 rep stosd
  0001b	b9 00 00 00 00	 mov	 ecx, OFFSET __79D216CD_xmemory
  00020	e8 00 00 00 00	 call	 @__CheckForDebuggerJustMyCode@4

; 154  :     // adjust parameters from _Allocate_manually_vector_aligned to pass to operator delete
; 155  :     _Bytes += _Non_user_size;

  00025	8b 45 0c	 mov	 eax, DWORD PTR __Bytes$[ebp]
  00028	8b 08		 mov	 ecx, DWORD PTR [eax]
  0002a	83 c1 27	 add	 ecx, 39			; 00000027H
  0002d	8b 55 0c	 mov	 edx, DWORD PTR __Bytes$[ebp]
  00030	89 0a		 mov	 DWORD PTR [edx], ecx

; 156  : 
; 157  :     const uintptr_t* const _Ptr_user = reinterpret_cast<uintptr_t*>(_Ptr);

  00032	8b 45 08	 mov	 eax, DWORD PTR __Ptr$[ebp]
  00035	8b 08		 mov	 ecx, DWORD PTR [eax]
  00037	89 4d f8	 mov	 DWORD PTR __Ptr_user$[ebp], ecx

; 158  :     const uintptr_t _Ptr_container   = _Ptr_user[-1];

  0003a	b8 04 00 00 00	 mov	 eax, 4
  0003f	6b c8 ff	 imul	 ecx, eax, -1
  00042	8b 55 f8	 mov	 edx, DWORD PTR __Ptr_user$[ebp]
  00045	8b 04 0a	 mov	 eax, DWORD PTR [edx+ecx]
  00048	89 45 ec	 mov	 DWORD PTR __Ptr_container$[ebp], eax
$LN4@Adjust_man:

; 159  : 
; 160  :     // If the following asserts, it likely means that we are performing
; 161  :     // an aligned delete on memory coming from an unaligned allocation.
; 162  :     _STL_ASSERT(_Ptr_user[-2] == _Big_allocation_sentinel, "invalid argument");

  0004b	b8 04 00 00 00	 mov	 eax, 4
  00050	6b c8 fe	 imul	 ecx, eax, -2
  00053	8b 55 f8	 mov	 edx, DWORD PTR __Ptr_user$[ebp]
  00056	81 3c 0a fa fa
	fa fa		 cmp	 DWORD PTR [edx+ecx], -84215046 ; fafafafaH
  0005d	75 02		 jne	 SHORT $LN7@Adjust_man
  0005f	eb 64		 jmp	 SHORT $LN2@Adjust_man
$LN7@Adjust_man:
  00061	8b f4		 mov	 esi, esp
  00063	68 00 00 00 00	 push	 OFFSET ??_C@_0BB@FCMFBGOM@invalid?5argument@
  00068	68 00 00 00 00	 push	 OFFSET ??_C@_02DKCKIIND@?$CFs@
  0006d	6a 00		 push	 0
  0006f	a1 00 00 00 00	 mov	 eax, DWORD PTR ?__LINE__Var@?0??_Adjust_manually_vector_aligned@std@@YAXAAPAXAAI@Z@4JA
  00074	83 c0 09	 add	 eax, 9
  00077	50		 push	 eax
  00078	68 00 00 00 00	 push	 OFFSET ??_C@_0GI@MNEMJBML@C?3?2Program?5Files?5?$CIx86?$CJ?2Microsof@
  0007d	6a 02		 push	 2
  0007f	ff 15 00 00 00
	00		 call	 DWORD PTR __imp___CrtDbgReport
  00085	83 c4 18	 add	 esp, 24			; 00000018H
  00088	3b f4		 cmp	 esi, esp
  0008a	e8 00 00 00 00	 call	 __RTC_CheckEsp
  0008f	83 f8 01	 cmp	 eax, 1
  00092	75 01		 jne	 SHORT $LN19@Adjust_man
  00094	cc		 int	 3
$LN19@Adjust_man:
  00095	8b f4		 mov	 esi, esp
  00097	6a 00		 push	 0
  00099	a1 00 00 00 00	 mov	 eax, DWORD PTR ?__LINE__Var@?0??_Adjust_manually_vector_aligned@std@@YAXAAPAXAAI@Z@4JA
  0009e	83 c0 09	 add	 eax, 9
  000a1	50		 push	 eax
  000a2	68 00 00 00 00	 push	 OFFSET ??_C@_1NA@MJBOBEJL@?$AAC?$AA?3?$AA?2?$AAP?$AAr?$AAo?$AAg?$AAr?$AAa?$AAm?$AA?5?$AAF?$AAi?$AAl?$AAe@
  000a7	68 00 00 00 00	 push	 OFFSET ??_C@_1EK@NIFDJFDG@?$AAs?$AAt?$AAd?$AA?3?$AA?3?$AA_?$AAA?$AAd?$AAj?$AAu?$AAs?$AAt?$AA_?$AAm?$AAa@
  000ac	68 00 00 00 00	 push	 OFFSET ??_C@_1CG@JNLFBNGN@?$AA?$CC?$AAi?$AAn?$AAv?$AAa?$AAl?$AAi?$AAd?$AA?5?$AAa?$AAr?$AAg?$AAu?$AAm?$AAe@
  000b1	ff 15 00 00 00
	00		 call	 DWORD PTR __imp___invalid_parameter
  000b7	83 c4 14	 add	 esp, 20			; 00000014H
  000ba	3b f4		 cmp	 esi, esp
  000bc	e8 00 00 00 00	 call	 __RTC_CheckEsp
  000c1	33 c0		 xor	 eax, eax
  000c3	75 9c		 jne	 SHORT $LN7@Adjust_man
$LN2@Adjust_man:
  000c5	33 c0		 xor	 eax, eax
  000c7	75 82		 jne	 SHORT $LN4@Adjust_man

; 163  : 
; 164  :     // Extra paranoia on aligned allocation/deallocation; ensure _Ptr_container is
; 165  :     // in range [_Min_back_shift, _Non_user_size]
; 166  : #ifdef _DEBUG
; 167  :     constexpr uintptr_t _Min_back_shift = 2 * sizeof(void*);

  000c9	c7 45 e0 08 00
	00 00		 mov	 DWORD PTR __Min_back_shift$[ebp], 8

; 168  : #else // ^^^ _DEBUG ^^^ // vvv !_DEBUG vvv
; 169  :     constexpr uintptr_t _Min_back_shift = sizeof(void*);
; 170  : #endif // _DEBUG
; 171  :     const uintptr_t _Back_shift = reinterpret_cast<uintptr_t>(_Ptr) - _Ptr_container;

  000d0	8b 45 08	 mov	 eax, DWORD PTR __Ptr$[ebp]
  000d3	8b 08		 mov	 ecx, DWORD PTR [eax]
  000d5	2b 4d ec	 sub	 ecx, DWORD PTR __Ptr_container$[ebp]
  000d8	89 4d d4	 mov	 DWORD PTR __Back_shift$[ebp], ecx
$LN10@Adjust_man:

; 172  :     _STL_VERIFY(_Back_shift >= _Min_back_shift && _Back_shift <= _Non_user_size, "invalid argument");

  000db	83 7d d4 08	 cmp	 DWORD PTR __Back_shift$[ebp], 8
  000df	72 08		 jb	 SHORT $LN13@Adjust_man
  000e1	83 7d d4 27	 cmp	 DWORD PTR __Back_shift$[ebp], 39 ; 00000027H
  000e5	77 02		 ja	 SHORT $LN13@Adjust_man
  000e7	eb 64		 jmp	 SHORT $LN8@Adjust_man
$LN13@Adjust_man:
  000e9	8b f4		 mov	 esi, esp
  000eb	68 00 00 00 00	 push	 OFFSET ??_C@_0BB@FCMFBGOM@invalid?5argument@
  000f0	68 00 00 00 00	 push	 OFFSET ??_C@_02DKCKIIND@?$CFs@
  000f5	6a 00		 push	 0
  000f7	a1 00 00 00 00	 mov	 eax, DWORD PTR ?__LINE__Var@?0??_Adjust_manually_vector_aligned@std@@YAXAAPAXAAI@Z@4JA
  000fc	83 c0 13	 add	 eax, 19			; 00000013H
  000ff	50		 push	 eax
  00100	68 00 00 00 00	 push	 OFFSET ??_C@_0GI@MNEMJBML@C?3?2Program?5Files?5?$CIx86?$CJ?2Microsof@
  00105	6a 02		 push	 2
  00107	ff 15 00 00 00
	00		 call	 DWORD PTR __imp___CrtDbgReport
  0010d	83 c4 18	 add	 esp, 24			; 00000018H
  00110	3b f4		 cmp	 esi, esp
  00112	e8 00 00 00 00	 call	 __RTC_CheckEsp
  00117	83 f8 01	 cmp	 eax, 1
  0011a	75 01		 jne	 SHORT $LN20@Adjust_man
  0011c	cc		 int	 3
$LN20@Adjust_man:
  0011d	8b f4		 mov	 esi, esp
  0011f	6a 00		 push	 0
  00121	a1 00 00 00 00	 mov	 eax, DWORD PTR ?__LINE__Var@?0??_Adjust_manually_vector_aligned@std@@YAXAAPAXAAI@Z@4JA
  00126	83 c0 13	 add	 eax, 19			; 00000013H
  00129	50		 push	 eax
  0012a	68 00 00 00 00	 push	 OFFSET ??_C@_1NA@MJBOBEJL@?$AAC?$AA?3?$AA?2?$AAP?$AAr?$AAo?$AAg?$AAr?$AAa?$AAm?$AA?5?$AAF?$AAi?$AAl?$AAe@
  0012f	68 00 00 00 00	 push	 OFFSET ??_C@_1EK@NIFDJFDG@?$AAs?$AAt?$AAd?$AA?3?$AA?3?$AA_?$AAA?$AAd?$AAj?$AAu?$AAs?$AAt?$AA_?$AAm?$AAa@
  00134	68 00 00 00 00	 push	 OFFSET ??_C@_1CG@JNLFBNGN@?$AA?$CC?$AAi?$AAn?$AAv?$AAa?$AAl?$AAi?$AAd?$AA?5?$AAa?$AAr?$AAg?$AAu?$AAm?$AAe@
  00139	ff 15 00 00 00
	00		 call	 DWORD PTR __imp___invalid_parameter
  0013f	83 c4 14	 add	 esp, 20			; 00000014H
  00142	3b f4		 cmp	 esi, esp
  00144	e8 00 00 00 00	 call	 __RTC_CheckEsp
  00149	33 c0		 xor	 eax, eax
  0014b	75 9c		 jne	 SHORT $LN13@Adjust_man
$LN8@Adjust_man:
  0014d	33 c0		 xor	 eax, eax
  0014f	75 8a		 jne	 SHORT $LN10@Adjust_man

; 173  :     _Ptr = reinterpret_cast<void*>(_Ptr_container);

  00151	8b 45 08	 mov	 eax, DWORD PTR __Ptr$[ebp]
  00154	8b 4d ec	 mov	 ecx, DWORD PTR __Ptr_container$[ebp]
  00157	89 08		 mov	 DWORD PTR [eax], ecx

; 174  : }

  00159	5f		 pop	 edi
  0015a	5e		 pop	 esi
  0015b	5b		 pop	 ebx
  0015c	81 c4 f0 00 00
	00		 add	 esp, 240		; 000000f0H
  00162	3b ec		 cmp	 ebp, esp
  00164	e8 00 00 00 00	 call	 __RTC_CheckEsp
  00169	8b e5		 mov	 esp, ebp
  0016b	5d		 pop	 ebp
  0016c	c3		 ret	 0
?_Adjust_manually_vector_aligned@std@@YAXAAPAXAAI@Z ENDP ; std::_Adjust_manually_vector_aligned
_TEXT	ENDS
; Function compile flags: /Odtp /RTCsu /ZI
; File C:\Program Files (x86)\Microsoft Visual Studio\2019\Community\VC\Tools\MSVC\14.29.30133\include\xmemory
;	COMDAT ?_Allocate@_Default_allocate_traits@std@@SAPAXI@Z
_TEXT	SEGMENT
__Bytes$ = 8						; size = 4
?_Allocate@_Default_allocate_traits@std@@SAPAXI@Z PROC	; std::_Default_allocate_traits::_Allocate, COMDAT

; 84   :         void* _Allocate(const size_t _Bytes) {

  00000	55		 push	 ebp
  00001	8b ec		 mov	 ebp, esp
  00003	81 ec c0 00 00
	00		 sub	 esp, 192		; 000000c0H
  00009	53		 push	 ebx
  0000a	56		 push	 esi
  0000b	57		 push	 edi
  0000c	8b fd		 mov	 edi, ebp
  0000e	33 c9		 xor	 ecx, ecx
  00010	b8 cc cc cc cc	 mov	 eax, -858993460		; ccccccccH
  00015	f3 ab		 rep stosd
  00017	b9 00 00 00 00	 mov	 ecx, OFFSET __79D216CD_xmemory
  0001c	e8 00 00 00 00	 call	 @__CheckForDebuggerJustMyCode@4

; 85   :         return ::operator new(_Bytes);

  00021	8b 45 08	 mov	 eax, DWORD PTR __Bytes$[ebp]
  00024	50		 push	 eax
  00025	e8 00 00 00 00	 call	 ??2@YAPAXI@Z		; operator new
  0002a	83 c4 04	 add	 esp, 4

; 86   :     }

  0002d	5f		 pop	 edi
  0002e	5e		 pop	 esi
  0002f	5b		 pop	 ebx
  00030	81 c4 c0 00 00
	00		 add	 esp, 192		; 000000c0H
  00036	3b ec		 cmp	 ebp, esp
  00038	e8 00 00 00 00	 call	 __RTC_CheckEsp
  0003d	8b e5		 mov	 esp, ebp
  0003f	5d		 pop	 ebp
  00040	c3		 ret	 0
?_Allocate@_Default_allocate_traits@std@@SAPAXI@Z ENDP	; std::_Default_allocate_traits::_Allocate
_TEXT	ENDS
; Function compile flags: /Odtp /RTCsu /ZI
; File C:\Program Files (x86)\Microsoft Visual Studio\2019\Community\VC\Tools\MSVC\14.29.30133\include\limits
;	COMDAT ?max@?$numeric_limits@H@std@@SAHXZ
_TEXT	SEGMENT
?max@?$numeric_limits@H@std@@SAHXZ PROC			; std::numeric_limits<int>::max, COMDAT

; 556  :     _NODISCARD static constexpr int(max)() noexcept {

  00000	55		 push	 ebp
  00001	8b ec		 mov	 ebp, esp
  00003	81 ec c0 00 00
	00		 sub	 esp, 192		; 000000c0H
  00009	53		 push	 ebx
  0000a	56		 push	 esi
  0000b	57		 push	 edi
  0000c	8b fd		 mov	 edi, ebp
  0000e	33 c9		 xor	 ecx, ecx
  00010	b8 cc cc cc cc	 mov	 eax, -858993460		; ccccccccH
  00015	f3 ab		 rep stosd
  00017	b9 00 00 00 00	 mov	 ecx, OFFSET __7FE5F402_limits
  0001c	e8 00 00 00 00	 call	 @__CheckForDebuggerJustMyCode@4

; 557  :         return INT_MAX;

  00021	b8 ff ff ff 7f	 mov	 eax, 2147483647		; 7fffffffH

; 558  :     }

  00026	5f		 pop	 edi
  00027	5e		 pop	 esi
  00028	5b		 pop	 ebx
  00029	81 c4 c0 00 00
	00		 add	 esp, 192		; 000000c0H
  0002f	3b ec		 cmp	 ebp, esp
  00031	e8 00 00 00 00	 call	 __RTC_CheckEsp
  00036	8b e5		 mov	 esp, ebp
  00038	5d		 pop	 ebp
  00039	c3		 ret	 0
?max@?$numeric_limits@H@std@@SAHXZ ENDP			; std::numeric_limits<int>::max
_TEXT	ENDS
; Function compile flags: /Odtp /RTCsu /ZI
; File C:\Program Files (x86)\Microsoft Visual Studio\2019\Community\VC\Tools\MSVC\14.29.30133\include\exception
;	COMDAT ?_Throw_bad_array_new_length@std@@YAXXZ
_TEXT	SEGMENT
$T1 = -208						; size = 12
?_Throw_bad_array_new_length@std@@YAXXZ PROC		; std::_Throw_bad_array_new_length, COMDAT

; 320  : [[noreturn]] inline void _Throw_bad_array_new_length() {

  00000	55		 push	 ebp
  00001	8b ec		 mov	 ebp, esp
  00003	81 ec d4 00 00
	00		 sub	 esp, 212		; 000000d4H
  00009	53		 push	 ebx
  0000a	56		 push	 esi
  0000b	57		 push	 edi
  0000c	8d 7d ec	 lea	 edi, DWORD PTR [ebp-20]
  0000f	b9 05 00 00 00	 mov	 ecx, 5
  00014	b8 cc cc cc cc	 mov	 eax, -858993460		; ccccccccH
  00019	f3 ab		 rep stosd
  0001b	b9 00 00 00 00	 mov	 ecx, OFFSET __FF458F76_exception
  00020	e8 00 00 00 00	 call	 @__CheckForDebuggerJustMyCode@4

; 321  :     _THROW(bad_array_new_length{});

  00025	8d 8d 30 ff ff
	ff		 lea	 ecx, DWORD PTR $T1[ebp]
  0002b	e8 00 00 00 00	 call	 ??0bad_array_new_length@std@@QAE@XZ ; std::bad_array_new_length::bad_array_new_length
  00030	68 00 00 00 00	 push	 OFFSET __TI3?AVbad_array_new_length@std@@
  00035	8d 85 30 ff ff
	ff		 lea	 eax, DWORD PTR $T1[ebp]
  0003b	50		 push	 eax
  0003c	e8 00 00 00 00	 call	 __CxxThrowException@8
$LN2@Throw_bad_:

; 322  : }

  00041	5f		 pop	 edi
  00042	5e		 pop	 esi
  00043	5b		 pop	 ebx
  00044	81 c4 d4 00 00
	00		 add	 esp, 212		; 000000d4H
  0004a	3b ec		 cmp	 ebp, esp
  0004c	e8 00 00 00 00	 call	 __RTC_CheckEsp
  00051	8b e5		 mov	 esp, ebp
  00053	5d		 pop	 ebp
  00054	c3		 ret	 0
?_Throw_bad_array_new_length@std@@YAXXZ ENDP		; std::_Throw_bad_array_new_length
_TEXT	ENDS
; Function compile flags: /Odtp /RTCsu /ZI
;	COMDAT ??_Gbad_array_new_length@std@@UAEPAXI@Z
_TEXT	SEGMENT
_this$ = -8						; size = 4
___flags$ = 8						; size = 4
??_Gbad_array_new_length@std@@UAEPAXI@Z PROC		; std::bad_array_new_length::`scalar deleting destructor', COMDAT
; _this$ = ecx
  00000	55		 push	 ebp
  00001	8b ec		 mov	 ebp, esp
  00003	81 ec cc 00 00
	00		 sub	 esp, 204		; 000000ccH
  00009	53		 push	 ebx
  0000a	56		 push	 esi
  0000b	57		 push	 edi
  0000c	51		 push	 ecx
  0000d	8d 7d f4	 lea	 edi, DWORD PTR [ebp-12]
  00010	b9 03 00 00 00	 mov	 ecx, 3
  00015	b8 cc cc cc cc	 mov	 eax, -858993460		; ccccccccH
  0001a	f3 ab		 rep stosd
  0001c	59		 pop	 ecx
  0001d	89 4d f8	 mov	 DWORD PTR _this$[ebp], ecx
  00020	8b 4d f8	 mov	 ecx, DWORD PTR _this$[ebp]
  00023	e8 00 00 00 00	 call	 ??1bad_array_new_length@std@@UAE@XZ
  00028	8b 45 08	 mov	 eax, DWORD PTR ___flags$[ebp]
  0002b	83 e0 01	 and	 eax, 1
  0002e	74 0e		 je	 SHORT $LN2@scalar
  00030	6a 0c		 push	 12			; 0000000cH
  00032	8b 45 f8	 mov	 eax, DWORD PTR _this$[ebp]
  00035	50		 push	 eax
  00036	e8 00 00 00 00	 call	 ??3@YAXPAXI@Z		; operator delete
  0003b	83 c4 08	 add	 esp, 8
$LN2@scalar:
  0003e	8b 45 f8	 mov	 eax, DWORD PTR _this$[ebp]
  00041	5f		 pop	 edi
  00042	5e		 pop	 esi
  00043	5b		 pop	 ebx
  00044	81 c4 cc 00 00
	00		 add	 esp, 204		; 000000ccH
  0004a	3b ec		 cmp	 ebp, esp
  0004c	e8 00 00 00 00	 call	 __RTC_CheckEsp
  00051	8b e5		 mov	 esp, ebp
  00053	5d		 pop	 ebp
  00054	c2 04 00	 ret	 4
??_Gbad_array_new_length@std@@UAEPAXI@Z ENDP		; std::bad_array_new_length::`scalar deleting destructor'
_TEXT	ENDS
; Function compile flags: /Odtp /RTCsu /ZI
;	COMDAT ??0bad_array_new_length@std@@QAE@ABV01@@Z
_TEXT	SEGMENT
_this$ = -8						; size = 4
___that$ = 8						; size = 4
??0bad_array_new_length@std@@QAE@ABV01@@Z PROC		; std::bad_array_new_length::bad_array_new_length, COMDAT
; _this$ = ecx
  00000	55		 push	 ebp
  00001	8b ec		 mov	 ebp, esp
  00003	81 ec cc 00 00
	00		 sub	 esp, 204		; 000000ccH
  00009	53		 push	 ebx
  0000a	56		 push	 esi
  0000b	57		 push	 edi
  0000c	51		 push	 ecx
  0000d	8d 7d f4	 lea	 edi, DWORD PTR [ebp-12]
  00010	b9 03 00 00 00	 mov	 ecx, 3
  00015	b8 cc cc cc cc	 mov	 eax, -858993460		; ccccccccH
  0001a	f3 ab		 rep stosd
  0001c	59		 pop	 ecx
  0001d	89 4d f8	 mov	 DWORD PTR _this$[ebp], ecx
  00020	8b 45 08	 mov	 eax, DWORD PTR ___that$[ebp]
  00023	50		 push	 eax
  00024	8b 4d f8	 mov	 ecx, DWORD PTR _this$[ebp]
  00027	e8 00 00 00 00	 call	 ??0bad_alloc@std@@QAE@ABV01@@Z
  0002c	8b 45 f8	 mov	 eax, DWORD PTR _this$[ebp]
  0002f	c7 00 00 00 00
	00		 mov	 DWORD PTR [eax], OFFSET ??_7bad_array_new_length@std@@6B@
  00035	8b 45 f8	 mov	 eax, DWORD PTR _this$[ebp]
  00038	5f		 pop	 edi
  00039	5e		 pop	 esi
  0003a	5b		 pop	 ebx
  0003b	81 c4 cc 00 00
	00		 add	 esp, 204		; 000000ccH
  00041	3b ec		 cmp	 ebp, esp
  00043	e8 00 00 00 00	 call	 __RTC_CheckEsp
  00048	8b e5		 mov	 esp, ebp
  0004a	5d		 pop	 ebp
  0004b	c2 04 00	 ret	 4
??0bad_array_new_length@std@@QAE@ABV01@@Z ENDP		; std::bad_array_new_length::bad_array_new_length
_TEXT	ENDS
; Function compile flags: /Odtp /RTCsu /ZI
;	COMDAT ??1bad_array_new_length@std@@UAE@XZ
_TEXT	SEGMENT
_this$ = -8						; size = 4
??1bad_array_new_length@std@@UAE@XZ PROC		; std::bad_array_new_length::~bad_array_new_length, COMDAT
; _this$ = ecx
  00000	55		 push	 ebp
  00001	8b ec		 mov	 ebp, esp
  00003	81 ec cc 00 00
	00		 sub	 esp, 204		; 000000ccH
  00009	53		 push	 ebx
  0000a	56		 push	 esi
  0000b	57		 push	 edi
  0000c	51		 push	 ecx
  0000d	8d 7d f4	 lea	 edi, DWORD PTR [ebp-12]
  00010	b9 03 00 00 00	 mov	 ecx, 3
  00015	b8 cc cc cc cc	 mov	 eax, -858993460		; ccccccccH
  0001a	f3 ab		 rep stosd
  0001c	59		 pop	 ecx
  0001d	89 4d f8	 mov	 DWORD PTR _this$[ebp], ecx
  00020	8b 4d f8	 mov	 ecx, DWORD PTR _this$[ebp]
  00023	e8 00 00 00 00	 call	 ??1bad_alloc@std@@UAE@XZ
  00028	5f		 pop	 edi
  00029	5e		 pop	 esi
  0002a	5b		 pop	 ebx
  0002b	81 c4 cc 00 00
	00		 add	 esp, 204		; 000000ccH
  00031	3b ec		 cmp	 ebp, esp
  00033	e8 00 00 00 00	 call	 __RTC_CheckEsp
  00038	8b e5		 mov	 esp, ebp
  0003a	5d		 pop	 ebp
  0003b	c3		 ret	 0
??1bad_array_new_length@std@@UAE@XZ ENDP		; std::bad_array_new_length::~bad_array_new_length
_TEXT	ENDS
; Function compile flags: /Odtp /RTCsu /ZI
; File C:\Program Files (x86)\Microsoft Visual Studio\2019\Community\VC\Tools\MSVC\14.29.30133\include\vcruntime_exception.h
;	COMDAT ??0bad_array_new_length@std@@QAE@XZ
_TEXT	SEGMENT
_this$ = -8						; size = 4
??0bad_array_new_length@std@@QAE@XZ PROC		; std::bad_array_new_length::bad_array_new_length, COMDAT
; _this$ = ecx

; 141  :     {

  00000	55		 push	 ebp
  00001	8b ec		 mov	 ebp, esp
  00003	81 ec cc 00 00
	00		 sub	 esp, 204		; 000000ccH
  00009	53		 push	 ebx
  0000a	56		 push	 esi
  0000b	57		 push	 edi
  0000c	51		 push	 ecx
  0000d	8d 7d f4	 lea	 edi, DWORD PTR [ebp-12]
  00010	b9 03 00 00 00	 mov	 ecx, 3
  00015	b8 cc cc cc cc	 mov	 eax, -858993460		; ccccccccH
  0001a	f3 ab		 rep stosd
  0001c	59		 pop	 ecx
  0001d	89 4d f8	 mov	 DWORD PTR _this$[ebp], ecx
  00020	b9 00 00 00 00	 mov	 ecx, OFFSET __B0A13A33_vcruntime_exception@h
  00025	e8 00 00 00 00	 call	 @__CheckForDebuggerJustMyCode@4

; 140  :         : bad_alloc("bad array new length")

  0002a	68 00 00 00 00	 push	 OFFSET ??_C@_0BF@KINCDENJ@bad?5array?5new?5length@
  0002f	8b 4d f8	 mov	 ecx, DWORD PTR _this$[ebp]
  00032	e8 00 00 00 00	 call	 ??0bad_alloc@std@@AAE@QBD@Z ; std::bad_alloc::bad_alloc

; 141  :     {

  00037	8b 45 f8	 mov	 eax, DWORD PTR _this$[ebp]
  0003a	c7 00 00 00 00
	00		 mov	 DWORD PTR [eax], OFFSET ??_7bad_array_new_length@std@@6B@

; 142  :     }

  00040	8b 45 f8	 mov	 eax, DWORD PTR _this$[ebp]
  00043	5f		 pop	 edi
  00044	5e		 pop	 esi
  00045	5b		 pop	 ebx
  00046	81 c4 cc 00 00
	00		 add	 esp, 204		; 000000ccH
  0004c	3b ec		 cmp	 ebp, esp
  0004e	e8 00 00 00 00	 call	 __RTC_CheckEsp
  00053	8b e5		 mov	 esp, ebp
  00055	5d		 pop	 ebp
  00056	c3		 ret	 0
??0bad_array_new_length@std@@QAE@XZ ENDP		; std::bad_array_new_length::bad_array_new_length
_TEXT	ENDS
; Function compile flags: /Odtp /RTCsu /ZI
;	COMDAT ??_Gbad_alloc@std@@UAEPAXI@Z
_TEXT	SEGMENT
_this$ = -8						; size = 4
___flags$ = 8						; size = 4
??_Gbad_alloc@std@@UAEPAXI@Z PROC			; std::bad_alloc::`scalar deleting destructor', COMDAT
; _this$ = ecx
  00000	55		 push	 ebp
  00001	8b ec		 mov	 ebp, esp
  00003	81 ec cc 00 00
	00		 sub	 esp, 204		; 000000ccH
  00009	53		 push	 ebx
  0000a	56		 push	 esi
  0000b	57		 push	 edi
  0000c	51		 push	 ecx
  0000d	8d 7d f4	 lea	 edi, DWORD PTR [ebp-12]
  00010	b9 03 00 00 00	 mov	 ecx, 3
  00015	b8 cc cc cc cc	 mov	 eax, -858993460		; ccccccccH
  0001a	f3 ab		 rep stosd
  0001c	59		 pop	 ecx
  0001d	89 4d f8	 mov	 DWORD PTR _this$[ebp], ecx
  00020	8b 4d f8	 mov	 ecx, DWORD PTR _this$[ebp]
  00023	e8 00 00 00 00	 call	 ??1bad_alloc@std@@UAE@XZ
  00028	8b 45 08	 mov	 eax, DWORD PTR ___flags$[ebp]
  0002b	83 e0 01	 and	 eax, 1
  0002e	74 0e		 je	 SHORT $LN2@scalar
  00030	6a 0c		 push	 12			; 0000000cH
  00032	8b 45 f8	 mov	 eax, DWORD PTR _this$[ebp]
  00035	50		 push	 eax
  00036	e8 00 00 00 00	 call	 ??3@YAXPAXI@Z		; operator delete
  0003b	83 c4 08	 add	 esp, 8
$LN2@scalar:
  0003e	8b 45 f8	 mov	 eax, DWORD PTR _this$[ebp]
  00041	5f		 pop	 edi
  00042	5e		 pop	 esi
  00043	5b		 pop	 ebx
  00044	81 c4 cc 00 00
	00		 add	 esp, 204		; 000000ccH
  0004a	3b ec		 cmp	 ebp, esp
  0004c	e8 00 00 00 00	 call	 __RTC_CheckEsp
  00051	8b e5		 mov	 esp, ebp
  00053	5d		 pop	 ebp
  00054	c2 04 00	 ret	 4
??_Gbad_alloc@std@@UAEPAXI@Z ENDP			; std::bad_alloc::`scalar deleting destructor'
_TEXT	ENDS
; Function compile flags: /Odtp /RTCsu /ZI
;	COMDAT ??0bad_alloc@std@@QAE@ABV01@@Z
_TEXT	SEGMENT
_this$ = -8						; size = 4
___that$ = 8						; size = 4
??0bad_alloc@std@@QAE@ABV01@@Z PROC			; std::bad_alloc::bad_alloc, COMDAT
; _this$ = ecx
  00000	55		 push	 ebp
  00001	8b ec		 mov	 ebp, esp
  00003	81 ec cc 00 00
	00		 sub	 esp, 204		; 000000ccH
  00009	53		 push	 ebx
  0000a	56		 push	 esi
  0000b	57		 push	 edi
  0000c	51		 push	 ecx
  0000d	8d 7d f4	 lea	 edi, DWORD PTR [ebp-12]
  00010	b9 03 00 00 00	 mov	 ecx, 3
  00015	b8 cc cc cc cc	 mov	 eax, -858993460		; ccccccccH
  0001a	f3 ab		 rep stosd
  0001c	59		 pop	 ecx
  0001d	89 4d f8	 mov	 DWORD PTR _this$[ebp], ecx
  00020	8b 45 08	 mov	 eax, DWORD PTR ___that$[ebp]
  00023	50		 push	 eax
  00024	8b 4d f8	 mov	 ecx, DWORD PTR _this$[ebp]
  00027	e8 00 00 00 00	 call	 ??0exception@std@@QAE@ABV01@@Z ; std::exception::exception
  0002c	8b 45 f8	 mov	 eax, DWORD PTR _this$[ebp]
  0002f	c7 00 00 00 00
	00		 mov	 DWORD PTR [eax], OFFSET ??_7bad_alloc@std@@6B@
  00035	8b 45 f8	 mov	 eax, DWORD PTR _this$[ebp]
  00038	5f		 pop	 edi
  00039	5e		 pop	 esi
  0003a	5b		 pop	 ebx
  0003b	81 c4 cc 00 00
	00		 add	 esp, 204		; 000000ccH
  00041	3b ec		 cmp	 ebp, esp
  00043	e8 00 00 00 00	 call	 __RTC_CheckEsp
  00048	8b e5		 mov	 esp, ebp
  0004a	5d		 pop	 ebp
  0004b	c2 04 00	 ret	 4
??0bad_alloc@std@@QAE@ABV01@@Z ENDP			; std::bad_alloc::bad_alloc
_TEXT	ENDS
; Function compile flags: /Odtp /RTCsu /ZI
;	COMDAT ??1bad_alloc@std@@UAE@XZ
_TEXT	SEGMENT
_this$ = -8						; size = 4
??1bad_alloc@std@@UAE@XZ PROC				; std::bad_alloc::~bad_alloc, COMDAT
; _this$ = ecx
  00000	55		 push	 ebp
  00001	8b ec		 mov	 ebp, esp
  00003	81 ec cc 00 00
	00		 sub	 esp, 204		; 000000ccH
  00009	53		 push	 ebx
  0000a	56		 push	 esi
  0000b	57		 push	 edi
  0000c	51		 push	 ecx
  0000d	8d 7d f4	 lea	 edi, DWORD PTR [ebp-12]
  00010	b9 03 00 00 00	 mov	 ecx, 3
  00015	b8 cc cc cc cc	 mov	 eax, -858993460		; ccccccccH
  0001a	f3 ab		 rep stosd
  0001c	59		 pop	 ecx
  0001d	89 4d f8	 mov	 DWORD PTR _this$[ebp], ecx
  00020	8b 4d f8	 mov	 ecx, DWORD PTR _this$[ebp]
  00023	e8 00 00 00 00	 call	 ??1exception@std@@UAE@XZ ; std::exception::~exception
  00028	5f		 pop	 edi
  00029	5e		 pop	 esi
  0002a	5b		 pop	 ebx
  0002b	81 c4 cc 00 00
	00		 add	 esp, 204		; 000000ccH
  00031	3b ec		 cmp	 ebp, esp
  00033	e8 00 00 00 00	 call	 __RTC_CheckEsp
  00038	8b e5		 mov	 esp, ebp
  0003a	5d		 pop	 ebp
  0003b	c3		 ret	 0
??1bad_alloc@std@@UAE@XZ ENDP				; std::bad_alloc::~bad_alloc
_TEXT	ENDS
; Function compile flags: /Odtp /RTCsu /ZI
; File C:\Program Files (x86)\Microsoft Visual Studio\2019\Community\VC\Tools\MSVC\14.29.30133\include\vcruntime_exception.h
;	COMDAT ??0bad_alloc@std@@AAE@QBD@Z
_TEXT	SEGMENT
_this$ = -8						; size = 4
__Message$ = 8						; size = 4
??0bad_alloc@std@@AAE@QBD@Z PROC			; std::bad_alloc::bad_alloc, COMDAT
; _this$ = ecx

; 130  :     {

  00000	55		 push	 ebp
  00001	8b ec		 mov	 ebp, esp
  00003	81 ec cc 00 00
	00		 sub	 esp, 204		; 000000ccH
  00009	53		 push	 ebx
  0000a	56		 push	 esi
  0000b	57		 push	 edi
  0000c	51		 push	 ecx
  0000d	8d 7d f4	 lea	 edi, DWORD PTR [ebp-12]
  00010	b9 03 00 00 00	 mov	 ecx, 3
  00015	b8 cc cc cc cc	 mov	 eax, -858993460		; ccccccccH
  0001a	f3 ab		 rep stosd
  0001c	59		 pop	 ecx
  0001d	89 4d f8	 mov	 DWORD PTR _this$[ebp], ecx
  00020	b9 00 00 00 00	 mov	 ecx, OFFSET __B0A13A33_vcruntime_exception@h
  00025	e8 00 00 00 00	 call	 @__CheckForDebuggerJustMyCode@4

; 129  :         : exception(_Message, 1)

  0002a	6a 01		 push	 1
  0002c	8b 45 08	 mov	 eax, DWORD PTR __Message$[ebp]
  0002f	50		 push	 eax
  00030	8b 4d f8	 mov	 ecx, DWORD PTR _this$[ebp]
  00033	e8 00 00 00 00	 call	 ??0exception@std@@QAE@QBDH@Z ; std::exception::exception

; 130  :     {

  00038	8b 45 f8	 mov	 eax, DWORD PTR _this$[ebp]
  0003b	c7 00 00 00 00
	00		 mov	 DWORD PTR [eax], OFFSET ??_7bad_alloc@std@@6B@

; 131  :     }

  00041	8b 45 f8	 mov	 eax, DWORD PTR _this$[ebp]
  00044	5f		 pop	 edi
  00045	5e		 pop	 esi
  00046	5b		 pop	 ebx
  00047	81 c4 cc 00 00
	00		 add	 esp, 204		; 000000ccH
  0004d	3b ec		 cmp	 ebp, esp
  0004f	e8 00 00 00 00	 call	 __RTC_CheckEsp
  00054	8b e5		 mov	 esp, ebp
  00056	5d		 pop	 ebp
  00057	c2 04 00	 ret	 4
??0bad_alloc@std@@AAE@QBD@Z ENDP			; std::bad_alloc::bad_alloc
_TEXT	ENDS
; Function compile flags: /Odtp /RTCsu /ZI
;	COMDAT ??_Gexception@std@@UAEPAXI@Z
_TEXT	SEGMENT
_this$ = -8						; size = 4
___flags$ = 8						; size = 4
??_Gexception@std@@UAEPAXI@Z PROC			; std::exception::`scalar deleting destructor', COMDAT
; _this$ = ecx
  00000	55		 push	 ebp
  00001	8b ec		 mov	 ebp, esp
  00003	81 ec cc 00 00
	00		 sub	 esp, 204		; 000000ccH
  00009	53		 push	 ebx
  0000a	56		 push	 esi
  0000b	57		 push	 edi
  0000c	51		 push	 ecx
  0000d	8d 7d f4	 lea	 edi, DWORD PTR [ebp-12]
  00010	b9 03 00 00 00	 mov	 ecx, 3
  00015	b8 cc cc cc cc	 mov	 eax, -858993460		; ccccccccH
  0001a	f3 ab		 rep stosd
  0001c	59		 pop	 ecx
  0001d	89 4d f8	 mov	 DWORD PTR _this$[ebp], ecx
  00020	8b 4d f8	 mov	 ecx, DWORD PTR _this$[ebp]
  00023	e8 00 00 00 00	 call	 ??1exception@std@@UAE@XZ ; std::exception::~exception
  00028	8b 45 08	 mov	 eax, DWORD PTR ___flags$[ebp]
  0002b	83 e0 01	 and	 eax, 1
  0002e	74 0e		 je	 SHORT $LN2@scalar
  00030	6a 0c		 push	 12			; 0000000cH
  00032	8b 45 f8	 mov	 eax, DWORD PTR _this$[ebp]
  00035	50		 push	 eax
  00036	e8 00 00 00 00	 call	 ??3@YAXPAXI@Z		; operator delete
  0003b	83 c4 08	 add	 esp, 8
$LN2@scalar:
  0003e	8b 45 f8	 mov	 eax, DWORD PTR _this$[ebp]
  00041	5f		 pop	 edi
  00042	5e		 pop	 esi
  00043	5b		 pop	 ebx
  00044	81 c4 cc 00 00
	00		 add	 esp, 204		; 000000ccH
  0004a	3b ec		 cmp	 ebp, esp
  0004c	e8 00 00 00 00	 call	 __RTC_CheckEsp
  00051	8b e5		 mov	 esp, ebp
  00053	5d		 pop	 ebp
  00054	c2 04 00	 ret	 4
??_Gexception@std@@UAEPAXI@Z ENDP			; std::exception::`scalar deleting destructor'
_TEXT	ENDS
; Function compile flags: /Odtp /RTCsu /ZI
; File C:\Program Files (x86)\Microsoft Visual Studio\2019\Community\VC\Tools\MSVC\14.29.30133\include\vcruntime_exception.h
;	COMDAT ?what@exception@std@@UBEPBDXZ
_TEXT	SEGMENT
tv69 = -208						; size = 4
_this$ = -8						; size = 4
?what@exception@std@@UBEPBDXZ PROC			; std::exception::what, COMDAT
; _this$ = ecx

; 94   :     {

  00000	55		 push	 ebp
  00001	8b ec		 mov	 ebp, esp
  00003	81 ec d0 00 00
	00		 sub	 esp, 208		; 000000d0H
  00009	53		 push	 ebx
  0000a	56		 push	 esi
  0000b	57		 push	 edi
  0000c	51		 push	 ecx
  0000d	8d 7d f0	 lea	 edi, DWORD PTR [ebp-16]
  00010	b9 04 00 00 00	 mov	 ecx, 4
  00015	b8 cc cc cc cc	 mov	 eax, -858993460		; ccccccccH
  0001a	f3 ab		 rep stosd
  0001c	59		 pop	 ecx
  0001d	89 4d f8	 mov	 DWORD PTR _this$[ebp], ecx
  00020	b9 00 00 00 00	 mov	 ecx, OFFSET __B0A13A33_vcruntime_exception@h
  00025	e8 00 00 00 00	 call	 @__CheckForDebuggerJustMyCode@4

; 95   :         return _Data._What ? _Data._What : "Unknown exception";

  0002a	8b 45 f8	 mov	 eax, DWORD PTR _this$[ebp]
  0002d	83 78 04 00	 cmp	 DWORD PTR [eax+4], 0
  00031	74 0e		 je	 SHORT $LN3@what
  00033	8b 4d f8	 mov	 ecx, DWORD PTR _this$[ebp]
  00036	8b 51 04	 mov	 edx, DWORD PTR [ecx+4]
  00039	89 95 30 ff ff
	ff		 mov	 DWORD PTR tv69[ebp], edx
  0003f	eb 0a		 jmp	 SHORT $LN4@what
$LN3@what:
  00041	c7 85 30 ff ff
	ff 00 00 00 00	 mov	 DWORD PTR tv69[ebp], OFFSET ??_C@_0BC@EOODALEL@Unknown?5exception@
$LN4@what:
  0004b	8b 85 30 ff ff
	ff		 mov	 eax, DWORD PTR tv69[ebp]

; 96   :     }

  00051	5f		 pop	 edi
  00052	5e		 pop	 esi
  00053	5b		 pop	 ebx
  00054	81 c4 d0 00 00
	00		 add	 esp, 208		; 000000d0H
  0005a	3b ec		 cmp	 ebp, esp
  0005c	e8 00 00 00 00	 call	 __RTC_CheckEsp
  00061	8b e5		 mov	 esp, ebp
  00063	5d		 pop	 ebp
  00064	c3		 ret	 0
?what@exception@std@@UBEPBDXZ ENDP			; std::exception::what
_TEXT	ENDS
; Function compile flags: /Odtp /RTCsu /ZI
; File C:\Program Files (x86)\Microsoft Visual Studio\2019\Community\VC\Tools\MSVC\14.29.30133\include\vcruntime_exception.h
;	COMDAT ??1exception@std@@UAE@XZ
_TEXT	SEGMENT
_this$ = -8						; size = 4
??1exception@std@@UAE@XZ PROC				; std::exception::~exception, COMDAT
; _this$ = ecx

; 89   :     {

  00000	55		 push	 ebp
  00001	8b ec		 mov	 ebp, esp
  00003	81 ec cc 00 00
	00		 sub	 esp, 204		; 000000ccH
  00009	53		 push	 ebx
  0000a	56		 push	 esi
  0000b	57		 push	 edi
  0000c	51		 push	 ecx
  0000d	8d 7d f4	 lea	 edi, DWORD PTR [ebp-12]
  00010	b9 03 00 00 00	 mov	 ecx, 3
  00015	b8 cc cc cc cc	 mov	 eax, -858993460		; ccccccccH
  0001a	f3 ab		 rep stosd
  0001c	59		 pop	 ecx
  0001d	89 4d f8	 mov	 DWORD PTR _this$[ebp], ecx
  00020	b9 00 00 00 00	 mov	 ecx, OFFSET __B0A13A33_vcruntime_exception@h
  00025	e8 00 00 00 00	 call	 @__CheckForDebuggerJustMyCode@4
  0002a	8b 45 f8	 mov	 eax, DWORD PTR _this$[ebp]
  0002d	c7 00 00 00 00
	00		 mov	 DWORD PTR [eax], OFFSET ??_7exception@std@@6B@

; 90   :         __std_exception_destroy(&_Data);

  00033	8b 45 f8	 mov	 eax, DWORD PTR _this$[ebp]
  00036	83 c0 04	 add	 eax, 4
  00039	50		 push	 eax
  0003a	e8 00 00 00 00	 call	 ___std_exception_destroy
  0003f	83 c4 04	 add	 esp, 4

; 91   :     }

  00042	5f		 pop	 edi
  00043	5e		 pop	 esi
  00044	5b		 pop	 ebx
  00045	81 c4 cc 00 00
	00		 add	 esp, 204		; 000000ccH
  0004b	3b ec		 cmp	 ebp, esp
  0004d	e8 00 00 00 00	 call	 __RTC_CheckEsp
  00052	8b e5		 mov	 esp, ebp
  00054	5d		 pop	 ebp
  00055	c3		 ret	 0
??1exception@std@@UAE@XZ ENDP				; std::exception::~exception
_TEXT	ENDS
; Function compile flags: /Odtp /RTCsu /ZI
; File C:\Program Files (x86)\Microsoft Visual Studio\2019\Community\VC\Tools\MSVC\14.29.30133\include\vcruntime_exception.h
;	COMDAT ??0exception@std@@QAE@ABV01@@Z
_TEXT	SEGMENT
_this$ = -8						; size = 4
__Other$ = 8						; size = 4
??0exception@std@@QAE@ABV01@@Z PROC			; std::exception::exception, COMDAT
; _this$ = ecx

; 72   :     {

  00000	55		 push	 ebp
  00001	8b ec		 mov	 ebp, esp
  00003	81 ec cc 00 00
	00		 sub	 esp, 204		; 000000ccH
  00009	53		 push	 ebx
  0000a	56		 push	 esi
  0000b	57		 push	 edi
  0000c	51		 push	 ecx
  0000d	8d 7d f4	 lea	 edi, DWORD PTR [ebp-12]
  00010	b9 03 00 00 00	 mov	 ecx, 3
  00015	b8 cc cc cc cc	 mov	 eax, -858993460		; ccccccccH
  0001a	f3 ab		 rep stosd
  0001c	59		 pop	 ecx
  0001d	89 4d f8	 mov	 DWORD PTR _this$[ebp], ecx
  00020	b9 00 00 00 00	 mov	 ecx, OFFSET __B0A13A33_vcruntime_exception@h
  00025	e8 00 00 00 00	 call	 @__CheckForDebuggerJustMyCode@4
  0002a	8b 45 f8	 mov	 eax, DWORD PTR _this$[ebp]
  0002d	c7 00 00 00 00
	00		 mov	 DWORD PTR [eax], OFFSET ??_7exception@std@@6B@

; 71   :         : _Data()

  00033	33 c0		 xor	 eax, eax
  00035	8b 4d f8	 mov	 ecx, DWORD PTR _this$[ebp]
  00038	83 c1 04	 add	 ecx, 4
  0003b	89 01		 mov	 DWORD PTR [ecx], eax
  0003d	89 41 04	 mov	 DWORD PTR [ecx+4], eax

; 73   :         __std_exception_copy(&_Other._Data, &_Data);

  00040	8b 45 f8	 mov	 eax, DWORD PTR _this$[ebp]
  00043	83 c0 04	 add	 eax, 4
  00046	50		 push	 eax
  00047	8b 4d 08	 mov	 ecx, DWORD PTR __Other$[ebp]
  0004a	83 c1 04	 add	 ecx, 4
  0004d	51		 push	 ecx
  0004e	e8 00 00 00 00	 call	 ___std_exception_copy
  00053	83 c4 08	 add	 esp, 8

; 74   :     }

  00056	8b 45 f8	 mov	 eax, DWORD PTR _this$[ebp]
  00059	5f		 pop	 edi
  0005a	5e		 pop	 esi
  0005b	5b		 pop	 ebx
  0005c	81 c4 cc 00 00
	00		 add	 esp, 204		; 000000ccH
  00062	3b ec		 cmp	 ebp, esp
  00064	e8 00 00 00 00	 call	 __RTC_CheckEsp
  00069	8b e5		 mov	 esp, ebp
  0006b	5d		 pop	 ebp
  0006c	c2 04 00	 ret	 4
??0exception@std@@QAE@ABV01@@Z ENDP			; std::exception::exception
_TEXT	ENDS
; Function compile flags: /Odtp /RTCsu /ZI
; File C:\Program Files (x86)\Microsoft Visual Studio\2019\Community\VC\Tools\MSVC\14.29.30133\include\vcruntime_exception.h
;	COMDAT ??0exception@std@@QAE@QBDH@Z
_TEXT	SEGMENT
_this$ = -8						; size = 4
__Message$ = 8						; size = 4
___formal$ = 12						; size = 4
??0exception@std@@QAE@QBDH@Z PROC			; std::exception::exception, COMDAT
; _this$ = ecx

; 66   :     {

  00000	55		 push	 ebp
  00001	8b ec		 mov	 ebp, esp
  00003	81 ec cc 00 00
	00		 sub	 esp, 204		; 000000ccH
  00009	53		 push	 ebx
  0000a	56		 push	 esi
  0000b	57		 push	 edi
  0000c	51		 push	 ecx
  0000d	8d 7d f4	 lea	 edi, DWORD PTR [ebp-12]
  00010	b9 03 00 00 00	 mov	 ecx, 3
  00015	b8 cc cc cc cc	 mov	 eax, -858993460		; ccccccccH
  0001a	f3 ab		 rep stosd
  0001c	59		 pop	 ecx
  0001d	89 4d f8	 mov	 DWORD PTR _this$[ebp], ecx
  00020	b9 00 00 00 00	 mov	 ecx, OFFSET __B0A13A33_vcruntime_exception@h
  00025	e8 00 00 00 00	 call	 @__CheckForDebuggerJustMyCode@4
  0002a	8b 45 f8	 mov	 eax, DWORD PTR _this$[ebp]
  0002d	c7 00 00 00 00
	00		 mov	 DWORD PTR [eax], OFFSET ??_7exception@std@@6B@

; 65   :         : _Data()

  00033	33 c0		 xor	 eax, eax
  00035	8b 4d f8	 mov	 ecx, DWORD PTR _this$[ebp]
  00038	83 c1 04	 add	 ecx, 4
  0003b	89 01		 mov	 DWORD PTR [ecx], eax
  0003d	89 41 04	 mov	 DWORD PTR [ecx+4], eax

; 67   :         _Data._What = _Message;

  00040	8b 45 f8	 mov	 eax, DWORD PTR _this$[ebp]
  00043	8b 4d 08	 mov	 ecx, DWORD PTR __Message$[ebp]
  00046	89 48 04	 mov	 DWORD PTR [eax+4], ecx

; 68   :     }

  00049	8b 45 f8	 mov	 eax, DWORD PTR _this$[ebp]
  0004c	5f		 pop	 edi
  0004d	5e		 pop	 esi
  0004e	5b		 pop	 ebx
  0004f	81 c4 cc 00 00
	00		 add	 esp, 204		; 000000ccH
  00055	3b ec		 cmp	 ebp, esp
  00057	e8 00 00 00 00	 call	 __RTC_CheckEsp
  0005c	8b e5		 mov	 esp, ebp
  0005e	5d		 pop	 ebp
  0005f	c2 08 00	 ret	 8
??0exception@std@@QAE@QBDH@Z ENDP			; std::exception::exception
_TEXT	ENDS
; Function compile flags: /Odtp /RTCsu /ZI
; File C:\Program Files (x86)\Microsoft Visual Studio\2019\Community\VC\Tools\MSVC\14.29.30133\include\vcruntime_new.h
;	COMDAT ??2@YAPAXIPAX@Z
_TEXT	SEGMENT
__Size$ = 8						; size = 4
__Where$ = 12						; size = 4
??2@YAPAXIPAX@Z PROC					; operator new, COMDAT

; 167  :     {

  00000	55		 push	 ebp
  00001	8b ec		 mov	 ebp, esp
  00003	81 ec c0 00 00
	00		 sub	 esp, 192		; 000000c0H
  00009	53		 push	 ebx
  0000a	56		 push	 esi
  0000b	57		 push	 edi
  0000c	8b fd		 mov	 edi, ebp
  0000e	33 c9		 xor	 ecx, ecx
  00010	b8 cc cc cc cc	 mov	 eax, -858993460		; ccccccccH
  00015	f3 ab		 rep stosd
  00017	b9 00 00 00 00	 mov	 ecx, OFFSET __97D3638F_vcruntime_new@h
  0001c	e8 00 00 00 00	 call	 @__CheckForDebuggerJustMyCode@4

; 168  :         (void)_Size;
; 169  :         return _Where;

  00021	8b 45 0c	 mov	 eax, DWORD PTR __Where$[ebp]

; 170  :     }

  00024	5f		 pop	 edi
  00025	5e		 pop	 esi
  00026	5b		 pop	 ebx
  00027	81 c4 c0 00 00
	00		 add	 esp, 192		; 000000c0H
  0002d	3b ec		 cmp	 ebp, esp
  0002f	e8 00 00 00 00	 call	 __RTC_CheckEsp
  00034	8b e5		 mov	 esp, ebp
  00036	5d		 pop	 ebp
  00037	c3		 ret	 0
??2@YAPAXIPAX@Z ENDP					; operator new
_TEXT	ENDS
; Function compile flags: /Odtp /RTCsu /ZI
; File C:\instit\lab\ œŒ\Leapyears\Leapyears\Leapyears.cpp
;	COMDAT ?__empty_global_delete@@YAXPAXI@Z
_TEXT	SEGMENT
___formal$ = 8						; size = 4
___formal$ = 12						; size = 4
?__empty_global_delete@@YAXPAXI@Z PROC			; __empty_global_delete, COMDAT

  00000	55		 push	 ebp
  00001	8b ec		 mov	 ebp, esp
  00003	81 ec c0 00 00
	00		 sub	 esp, 192		; 000000c0H
  00009	53		 push	 ebx
  0000a	56		 push	 esi
  0000b	57		 push	 edi
  0000c	8b fd		 mov	 edi, ebp
  0000e	33 c9		 xor	 ecx, ecx
  00010	b8 cc cc cc cc	 mov	 eax, -858993460		; ccccccccH
  00015	f3 ab		 rep stosd
  00017	b9 00 00 00 00	 mov	 ecx, OFFSET __98C12F10_Leapyears@cpp
  0001c	e8 00 00 00 00	 call	 @__CheckForDebuggerJustMyCode@4
  00021	5f		 pop	 edi
  00022	5e		 pop	 esi
  00023	5b		 pop	 ebx
  00024	81 c4 c0 00 00
	00		 add	 esp, 192		; 000000c0H
  0002a	3b ec		 cmp	 ebp, esp
  0002c	e8 00 00 00 00	 call	 __RTC_CheckEsp
  00031	8b e5		 mov	 esp, ebp
  00033	5d		 pop	 ebp
  00034	c3		 ret	 0
?__empty_global_delete@@YAXPAXI@Z ENDP			; __empty_global_delete
_TEXT	ENDS
; Function compile flags: /Odtp /RTCsu /ZI
; File C:\instit\lab\ œŒ\Leapyears\Leapyears\Leapyears.cpp
;	COMDAT ?__empty_global_delete@@YAXPAX@Z
_TEXT	SEGMENT
___formal$ = 8						; size = 4
?__empty_global_delete@@YAXPAX@Z PROC			; __empty_global_delete, COMDAT

  00000	55		 push	 ebp
  00001	8b ec		 mov	 ebp, esp
  00003	81 ec c0 00 00
	00		 sub	 esp, 192		; 000000c0H
  00009	53		 push	 ebx
  0000a	56		 push	 esi
  0000b	57		 push	 edi
  0000c	8b fd		 mov	 edi, ebp
  0000e	33 c9		 xor	 ecx, ecx
  00010	b8 cc cc cc cc	 mov	 eax, -858993460		; ccccccccH
  00015	f3 ab		 rep stosd
  00017	b9 00 00 00 00	 mov	 ecx, OFFSET __98C12F10_Leapyears@cpp
  0001c	e8 00 00 00 00	 call	 @__CheckForDebuggerJustMyCode@4
  00021	5f		 pop	 edi
  00022	5e		 pop	 esi
  00023	5b		 pop	 ebx
  00024	81 c4 c0 00 00
	00		 add	 esp, 192		; 000000c0H
  0002a	3b ec		 cmp	 ebp, esp
  0002c	e8 00 00 00 00	 call	 __RTC_CheckEsp
  00031	8b e5		 mov	 esp, ebp
  00033	5d		 pop	 ebp
  00034	c3		 ret	 0
?__empty_global_delete@@YAXPAX@Z ENDP			; __empty_global_delete
_TEXT	ENDS
END
